---
triple:          'arm64-apple-darwin'
binary-path:     '/Users/piyushkeshan/Contests/AtCoderAtCoderBeginnerContest399/EReplace'
relocations:
  - { offset: 0x26F56, size: 0x8, addend: 0x0, symName: __ZStL8__ioinit, symObjAddr: 0xCEA7E, symBinAddr: 0x100018000, symSize: 0x0 }
  - { offset: 0x27425, size: 0x8, addend: 0x0, symName: __ZL3INF, symObjAddr: 0x98B8, symBinAddr: 0x10000B910, symSize: 0x0 }
  - { offset: 0x2743C, size: 0x8, addend: 0x0, symName: __ZL2nl, symObjAddr: 0x98C0, symBinAddr: 0x10000B918, symSize: 0x0 }
  - { offset: 0x275B5, size: 0x8, addend: 0x0, symName: _n, symObjAddr: 0xCEA80, symBinAddr: 0x100018008, symSize: 0x0 }
  - { offset: 0x275D0, size: 0x8, addend: 0x0, symName: __Z1sB5cxx11, symObjAddr: 0xCEA88, symBinAddr: 0x100018010, symSize: 0x0 }
  - { offset: 0x275EB, size: 0x8, addend: 0x0, symName: __Z1tB5cxx11, symObjAddr: 0xCEAA8, symBinAddr: 0x100018030, symSize: 0x0 }
  - { offset: 0x2834C, size: 0x8, addend: 0x0, symName: __GLOBAL__sub_I_EReplace.cpp, symObjAddr: 0x9C8C, symBinAddr: 0x10000A120, symSize: 0x14 }
  - { offset: 0x28364, size: 0x8, addend: 0x0, symName: __Z41__static_initialization_and_destruction_0v, symObjAddr: 0x9C00, symBinAddr: 0x10000A094, symSize: 0x8C }
  - { offset: 0x2837C, size: 0x8, addend: 0x0, symName: __ZNSt10_Head_baseILm0ERKiLb0EE7_M_headERS2_, symObjAddr: 0x9894, symBinAddr: 0x10000A07C, symSize: 0x18 }
  - { offset: 0x283A5, size: 0x8, addend: 0x0, symName: __ZNSt11_Tuple_implILm0EJRKiEE7_M_headERS2_, symObjAddr: 0x9878, symBinAddr: 0x10000A060, symSize: 0x1C }
  - { offset: 0x283CF, size: 0x8, addend: 0x0, symName: __ZSt12__get_helperILm0ERKiJEERT0_RSt11_Tuple_implIXT_EJS2_DpT1_EE, symObjAddr: 0x985C, symBinAddr: 0x10000A044, symSize: 0x1C }
  - { offset: 0x28411, size: 0x8, addend: 0x0, symName: __ZNSt11__copy_moveILb0ELb0ESt26random_access_iterator_tagE12__assign_oneIiKiEEvPT_PT0_, symObjAddr: 0x9834, symBinAddr: 0x10000A01C, symSize: 0x28 }
  - { offset: 0x2845E, size: 0x8, addend: 0x0, symName: __ZSt9__fill_a1IPiiEN9__gnu_cxx11__enable_ifIXsrSt11__is_scalarIT0_E7__valueEvE6__typeET_S8_RKS4_, symObjAddr: 0x97DC, symBinAddr: 0x100009FC4, symSize: 0x58 }
  - { offset: 0x284CD, size: 0x8, addend: 0x0, symName: __ZNSt11__copy_moveILb1ELb0ESt26random_access_iterator_tagE12__assign_oneIiiEEvPT_PT0_, symObjAddr: 0x97AC, symBinAddr: 0x100009F94, symSize: 0x30 }
  - { offset: 0x2851A, size: 0x8, addend: 0x0, symName: __ZSt3getILm0EJRKiEERNSt13tuple_elementIXT_ESt5tupleIJDpT0_EEE4typeERS6_, symObjAddr: 0x9790, symBinAddr: 0x100009F78, symSize: 0x1C }
  - { offset: 0x28559, size: 0x8, addend: 0x0, symName: __ZNSt11__copy_moveILb0ELb1ESt26random_access_iterator_tagE8__copy_mIKiiEEPT0_PT_S7_S5_, symObjAddr: 0x9700, symBinAddr: 0x100009EE8, symSize: 0x90 }
  - { offset: 0x2863D, size: 0x8, addend: 0x0, symName: __ZSt7forwardISt6vectorIiSaIiEEEOT_RNSt16remove_referenceIS3_E4typeE, symObjAddr: 0x96EC, symBinAddr: 0x100009ED4, symSize: 0x14 }
  - { offset: 0x2866F, size: 0x8, addend: 0x0, symName: __ZSt8__fill_aIPiiEvT_S1_RKT0_, symObjAddr: 0x96BC, symBinAddr: 0x100009EA4, symSize: 0x30 }
  - { offset: 0x286E3, size: 0x8, addend: 0x0, symName: __ZNSt20__copy_move_backwardILb1ELb1ESt26random_access_iterator_tagE13__copy_move_bIiiEEPT0_PT_S6_S4_, symObjAddr: 0x9610, symBinAddr: 0x100009DF8, symSize: 0xAC }
  - { offset: 0x28761, size: 0x8, addend: 0x0, symName: __ZNK9__gnu_cxx5__ops14_Iter_less_valclINS_17__normal_iteratorIPiSt6vectorIiSaIiEEEEiEEbT_RT0_, symObjAddr: 0x95D4, symBinAddr: 0x100009DBC, symSize: 0x3C }
  - { offset: 0x28826, size: 0x8, addend: 0x0, symName: __ZNSt4pairIKiSt3setIiSt4lessIiESaIiEEEC1IJRS0_EJLm0EEJEJEEERSt5tupleIJDpT_EERS9_IJDpT1_EESt12_Index_tupleIJXspT0_EEESI_IJXspT2_EEE, symObjAddr: 0x9574, symBinAddr: 0x100009D5C, symSize: 0x60 }
  - { offset: 0x28902, size: 0x8, addend: 0x0, symName: __ZNSt4pairIKiiEC1IJRS0_EJLm0EEJEJEEERSt5tupleIJDpT_EERS4_IJDpT1_EESt12_Index_tupleIJXspT0_EEESD_IJXspT2_EEE, symObjAddr: 0x952C, symBinAddr: 0x100009D14, symSize: 0x48 }
  - { offset: 0x28971, size: 0x8, addend: 0x0, symName: __ZSt14__copy_move_a2ILb0EPKiPiET1_T0_S4_S3_, symObjAddr: 0x9500, symBinAddr: 0x100009CE8, symSize: 0x2C }
  - { offset: 0x28A51, size: 0x8, addend: 0x0, symName: __ZSt4moveIRSt6vectorIiSaIiEEEONSt16remove_referenceIT_E4typeEOS5_, symObjAddr: 0x94EC, symBinAddr: 0x100009CD4, symSize: 0x14 }
  - { offset: 0x28A83, size: 0x8, addend: 0x0, symName: __ZSt10__fill_n_aIPimiET_S1_T0_RKT1_St26random_access_iterator_tag, symObjAddr: 0x9488, symBinAddr: 0x100009C70, symSize: 0x64 }
  - { offset: 0x28B1F, size: 0x8, addend: 0x0, symName: __ZSt10_ConstructISt6vectorIiSaIiEEJEEvPT_DpOT0_, symObjAddr: 0x9454, symBinAddr: 0x100009C3C, symSize: 0x34 }
  - { offset: 0x28B71, size: 0x8, addend: 0x0, symName: __ZSt23__copy_move_backward_a2ILb1EPiS0_ET1_T0_S2_S1_, symObjAddr: 0x9428, symBinAddr: 0x100009C10, symSize: 0x2C }
  - { offset: 0x28BE0, size: 0x8, addend: 0x0, symName: __ZSt11__push_heapIN9__gnu_cxx17__normal_iteratorIPiSt6vectorIiSaIiEEEEliNS0_5__ops14_Iter_less_valEEvT_T0_SA_T1_RT2_, symObjAddr: 0x9304, symBinAddr: 0x100009AEC, symSize: 0x124 }
  - { offset: 0x28C8C, size: 0x8, addend: 0x0, symName: __ZSt4moveIRN9__gnu_cxx5__ops15_Iter_less_iterEEONSt16remove_referenceIT_E4typeEOS5_, symObjAddr: 0x92F0, symBinAddr: 0x100009AD8, symSize: 0x14 }
  - { offset: 0x28D04, size: 0x8, addend: 0x0, symName: __ZNSt15__new_allocatorISt13_Rb_tree_nodeIiEE8allocateEmPKv, symObjAddr: 0x9260, symBinAddr: 0x100009A48, symSize: 0x90 }
  - { offset: 0x28DDB, size: 0x8, addend: 0x0, symName: __ZNSt4pairIKiSt3setIiSt4lessIiESaIiEEEC1IJRS0_EJEEESt21piecewise_construct_tSt5tupleIJDpT_EESA_IJDpT0_EE, symObjAddr: 0x9224, symBinAddr: 0x100009A0C, symSize: 0x3C }
  - { offset: 0x28E78, size: 0x8, addend: 0x0, symName: __ZNSt4pairIKiiEC1IJRS0_EJEEESt21piecewise_construct_tSt5tupleIJDpT_EES5_IJDpT0_EE, symObjAddr: 0x91E8, symBinAddr: 0x1000099D0, symSize: 0x3C }
  - { offset: 0x28EF2, size: 0x8, addend: 0x0, symName: __ZNSt11_Tuple_implILm0EJRKiEEC2EOS2_, symObjAddr: 0x91C0, symBinAddr: 0x1000099A8, symSize: 0x28 }
  - { offset: 0x28F25, size: 0x8, addend: 0x0, symName: __ZN9__gnu_cxx16__aligned_membufIiE7_M_addrEv, symObjAddr: 0x91AC, symBinAddr: 0x100009994, symSize: 0x14 }
  - { offset: 0x28F4B, size: 0x8, addend: 0x0, symName: __ZSt12__niter_wrapIPiET_RKS1_S1_, symObjAddr: 0x9194, symBinAddr: 0x10000997C, symSize: 0x18 }
  - { offset: 0x28F87, size: 0x8, addend: 0x0, symName: __ZSt14__copy_move_a1ILb0EPKiPiET1_T0_S4_S3_, symObjAddr: 0x9168, symBinAddr: 0x100009950, symSize: 0x2C }
  - { offset: 0x28FEF, size: 0x8, addend: 0x0, symName: __ZSt12__niter_baseIPKiSt6vectorIiSaIiEEET_N9__gnu_cxx17__normal_iteratorIS5_T0_EE, symObjAddr: 0x9148, symBinAddr: 0x100009930, symSize: 0x20 }
  - { offset: 0x2902B, size: 0x8, addend: 0x0, symName: __ZSt19__relocate_object_aISt6vectorIiSaIiEES2_SaIS2_EEvPT_PT0_RT1_, symObjAddr: 0x9078, symBinAddr: 0x100009860, symSize: 0xD0 }
  - { offset: 0x2915D, size: 0x8, addend: 0x0, symName: __ZSt6fill_nIPimiET_S1_T0_RKT1_, symObjAddr: 0x9030, symBinAddr: 0x100009818, symSize: 0x48 }
  - { offset: 0x291E5, size: 0x8, addend: 0x0, symName: __ZSt14__relocate_a_1IN5graphIiE4edgeES2_ENSt9enable_ifIXsrSt24__is_bitwise_relocatableIT_vE5valueEPS5_E4typeES7_S7_S7_RSaIT0_E, symObjAddr: 0x8FA0, symBinAddr: 0x100009788, symSize: 0x90 }
  - { offset: 0x29265, size: 0x8, addend: 0x0, symName: __ZSt12__niter_baseIPN5graphIiE4edgeEET_S4_, symObjAddr: 0x8F8C, symBinAddr: 0x100009774, symSize: 0x14 }
  - { offset: 0x2929C, size: 0x8, addend: 0x0, symName: __ZNSt15__new_allocatorIN5graphIiE4edgeEE8allocateEmPKv, symObjAddr: 0x8EFC, symBinAddr: 0x1000096E4, symSize: 0x90 }
  - { offset: 0x29328, size: 0x8, addend: 0x0, symName: __ZNKSt12_Vector_baseIN5graphIiE4edgeESaIS2_EE19_M_get_Tp_allocatorEv, symObjAddr: 0x8EE8, symBinAddr: 0x1000096D0, symSize: 0x14 }
  - { offset: 0x2934E, size: 0x8, addend: 0x0, symName: __ZNSt6vectorIN5graphIiE4edgeESaIS2_EE11_S_max_sizeERKS3_, symObjAddr: 0x8E8C, symBinAddr: 0x100009674, symSize: 0x5C }
  - { offset: 0x29405, size: 0x8, addend: 0x0, symName: __ZNSt27__uninitialized_default_n_1ILb0EE18__uninit_default_nIPSt6vectorIiSaIiEEmEET_S6_T0_, symObjAddr: 0x8E34, symBinAddr: 0x10000961C, symSize: 0x58 }
  - { offset: 0x29479, size: 0x8, addend: 0x0, symName: __ZSt12__niter_wrapIN9__gnu_cxx17__normal_iteratorIPiSt6vectorIiSaIiEEEES2_ET_S7_T0_, symObjAddr: 0x8DEC, symBinAddr: 0x1000095D4, symSize: 0x48 }
  - { offset: 0x294C6, size: 0x8, addend: 0x0, symName: __ZSt23__copy_move_backward_a1ILb1EPiS0_ET1_T0_S2_S1_, symObjAddr: 0x8DC0, symBinAddr: 0x1000095A8, symSize: 0x2C }
  - { offset: 0x2952E, size: 0x8, addend: 0x0, symName: __ZSt12__niter_baseIPiSt6vectorIiSaIiEEET_N9__gnu_cxx17__normal_iteratorIS4_T0_EE, symObjAddr: 0x8DA0, symBinAddr: 0x100009588, symSize: 0x20 }
  - { offset: 0x2956A, size: 0x8, addend: 0x0, symName: __ZSt4swapIiENSt9enable_ifIXsrSt6__and_IJSt6__not_ISt15__is_tuple_likeIT_EESt21is_move_constructibleIS4_ESt18is_move_assignableIS4_EEE5valueEvE4typeERS4_SE_, symObjAddr: 0x8D4C, symBinAddr: 0x100009534, symSize: 0x54 }
  - { offset: 0x295BC, size: 0x8, addend: 0x0, symName: __ZSt13__adjust_heapIN9__gnu_cxx17__normal_iteratorIPiSt6vectorIiSaIiEEEEliNS0_5__ops15_Iter_less_iterEEvT_T0_SA_T1_T2_, symObjAddr: 0x8B78, symBinAddr: 0x100009360, symSize: 0x1D4 }
  - { offset: 0x296EE, size: 0x8, addend: 0x0, symName: __ZNK9__gnu_cxx16__aligned_membufISt4pairIKiSt3setIiSt4lessIiESaIiEEEE7_M_addrEv, symObjAddr: 0x8B64, symBinAddr: 0x10000934C, symSize: 0x14 }
  - { offset: 0x2977C, size: 0x8, addend: 0x0, symName: __ZNSt15__new_allocatorISt13_Rb_tree_nodeISt4pairIKiSt3setIiSt4lessIiESaIiEEEEE8allocateEmPKv, symObjAddr: 0x8AC0, symBinAddr: 0x1000092A8, symSize: 0xA4 }
  - { offset: 0x2987D, size: 0x8, addend: 0x0, symName: __ZNSt5tupleIJRKiEEC1EOS2_, symObjAddr: 0x8A98, symBinAddr: 0x100009280, symSize: 0x28 }
  - { offset: 0x298AC, size: 0x8, addend: 0x0, symName: __ZNSt15__new_allocatorISt13_Rb_tree_nodeISt4pairIKiiEEE8allocateEmPKv, symObjAddr: 0x8A08, symBinAddr: 0x1000091F0, symSize: 0x90 }
  - { offset: 0x2993C, size: 0x8, addend: 0x0, symName: __ZNK9__gnu_cxx16__aligned_membufISt4pairIKiiEE7_M_addrEv, symObjAddr: 0x89F4, symBinAddr: 0x1000091DC, symSize: 0x14 }
  - { offset: 0x29966, size: 0x8, addend: 0x0, symName: __ZNSt15__new_allocatorISt13_Rb_tree_nodeIiEE10deallocateEPS1_m, symObjAddr: 0x89B8, symBinAddr: 0x1000091A0, symSize: 0x3C }
  - { offset: 0x299DC, size: 0x8, addend: 0x0, symName: __ZN9__gnu_cxx16__aligned_membufIiE6_M_ptrEv, symObjAddr: 0x899C, symBinAddr: 0x100009184, symSize: 0x1C }
  - { offset: 0x29A02, size: 0x8, addend: 0x0, symName: __ZSt13__copy_move_aILb0EN9__gnu_cxx17__normal_iteratorIPKiSt6vectorIiSaIiEEEEPiET1_T0_SA_S9_, symObjAddr: 0x893C, symBinAddr: 0x100009124, symSize: 0x60 }
  - { offset: 0x29A6A, size: 0x8, addend: 0x0, symName: __ZSt12__miter_baseIN9__gnu_cxx17__normal_iteratorIPKiSt6vectorIiSaIiEEEEET_S8_, symObjAddr: 0x8928, symBinAddr: 0x100009110, symSize: 0x14 }
  - { offset: 0x29A9D, size: 0x8, addend: 0x0, symName: __ZNSt14_Function_base13_Base_managerIZ11find_cyclesIiESt6vectorIS2_IiSaIiEESaIS4_EERK5graphIT_EiiEUliiE_E9_M_createIRKSC_EEvRSt9_Any_dataOS8_St17integral_constantIbLb0EE, symObjAddr: 0x88B8, symBinAddr: 0x1000090A0, symSize: 0x70 }
  - { offset: 0x29AEF, size: 0x8, addend: 0x0, symName: __ZSt7forwardIRKZ11find_cyclesIiESt6vectorIS1_IiSaIiEESaIS3_EERK5graphIT_EiiEUliiE_EOS7_RNSt16remove_referenceIS7_E4typeE, symObjAddr: 0x88A4, symBinAddr: 0x10000908C, symSize: 0x14 }
  - { offset: 0x29B21, size: 0x8, addend: 0x0, symName: __ZSt14__relocate_a_1IPSt6vectorIiSaIiEES3_SaIS2_EET0_T_S6_S5_RT1_, symObjAddr: 0x8820, symBinAddr: 0x100009008, symSize: 0x84 }
  - { offset: 0x29BAA, size: 0x8, addend: 0x0, symName: __ZSt12__niter_baseIPSt6vectorIiSaIiEEET_S4_, symObjAddr: 0x880C, symBinAddr: 0x100008FF4, symSize: 0x14 }
  - { offset: 0x29BE1, size: 0x8, addend: 0x0, symName: __ZNSt15__new_allocatorISt6vectorIiSaIiEEE8allocateEmPKv, symObjAddr: 0x877C, symBinAddr: 0x100008F64, symSize: 0x90 }
  - { offset: 0x29C69, size: 0x8, addend: 0x0, symName: __ZNSt22__uninitialized_fill_nILb1EE15__uninit_fill_nIPimiEET_S3_T0_RKT1_, symObjAddr: 0x8750, symBinAddr: 0x100008F38, symSize: 0x2C }
  - { offset: 0x29CE6, size: 0x8, addend: 0x0, symName: __ZSt12__relocate_aIPN5graphIiE4edgeES3_SaIS2_EET0_T_S6_S5_RT1_, symObjAddr: 0x86F4, symBinAddr: 0x100008EDC, symSize: 0x5C }
  - { offset: 0x29D86, size: 0x8, addend: 0x0, symName: __ZNK9__gnu_cxx17__normal_iteratorIPN5graphIiE4edgeESt6vectorIS3_SaIS3_EEE4baseEv, symObjAddr: 0x86E0, symBinAddr: 0x100008EC8, symSize: 0x14 }
  - { offset: 0x29DD8, size: 0x8, addend: 0x0, symName: __ZN9__gnu_cxx17__normal_iteratorIPN5graphIiE4edgeESt6vectorIS3_SaIS3_EEEC1ERKS4_, symObjAddr: 0x86B8, symBinAddr: 0x100008EA0, symSize: 0x28 }
  - { offset: 0x29E07, size: 0x8, addend: 0x0, symName: __ZNKSt6vectorIN5graphIiE4edgeESaIS2_EE8max_sizeEv, symObjAddr: 0x8698, symBinAddr: 0x100008E80, symSize: 0x20 }
  - { offset: 0x29E2D, size: 0x8, addend: 0x0, symName: __ZSt25__uninitialized_default_nIPSt6vectorIiSaIiEEmET_S4_T0_, symObjAddr: 0x866C, symBinAddr: 0x100008E54, symSize: 0x2C }
  - { offset: 0x29E8F, size: 0x8, addend: 0x0, symName: __ZNKSt12_Vector_baseISt6vectorIiSaIiEESaIS2_EE19_M_get_Tp_allocatorEv, symObjAddr: 0x8658, symBinAddr: 0x100008E40, symSize: 0x14 }
  - { offset: 0x29EB5, size: 0x8, addend: 0x0, symName: __ZNSt6vectorIS_IiSaIiEESaIS1_EE11_S_max_sizeERKS2_, symObjAddr: 0x85FC, symBinAddr: 0x100008DE4, symSize: 0x5C }
  - { offset: 0x29F7B, size: 0x8, addend: 0x0, symName: __ZNK9__gnu_cxx5__ops14_Val_less_iterclIiNS_17__normal_iteratorIPiSt6vectorIiSaIiEEEEEEbRT_T0_, symObjAddr: 0x85B8, symBinAddr: 0x100008DA0, symSize: 0x44 }
  - { offset: 0x29FD3, size: 0x8, addend: 0x0, symName: __ZSt22__copy_move_backward_aILb1EN9__gnu_cxx17__normal_iteratorIPiSt6vectorIiSaIiEEEES6_ET1_T0_S8_S7_, symObjAddr: 0x8558, symBinAddr: 0x100008D40, symSize: 0x60 }
  - { offset: 0x2A03B, size: 0x8, addend: 0x0, symName: __ZSt12__miter_baseIN9__gnu_cxx17__normal_iteratorIPiSt6vectorIiSaIiEEEEET_S7_, symObjAddr: 0x8544, symBinAddr: 0x100008D2C, symSize: 0x14 }
  - { offset: 0x2A06E, size: 0x8, addend: 0x0, symName: __ZSt9iter_swapIN9__gnu_cxx17__normal_iteratorIPiSt6vectorIiSaIiEEEES6_EvT_T0_, symObjAddr: 0x8500, symBinAddr: 0x100008CE8, symSize: 0x44 }
  - { offset: 0x2A0BD, size: 0x8, addend: 0x0, symName: __ZN9__gnu_cxx17__normal_iteratorIPiSt6vectorIiSaIiEEEmmEv, symObjAddr: 0x84D8, symBinAddr: 0x100008CC0, symSize: 0x28 }
  - { offset: 0x2A0E3, size: 0x8, addend: 0x0, symName: __ZSt10__pop_heapIN9__gnu_cxx17__normal_iteratorIPiSt6vectorIiSaIiEEEENS0_5__ops15_Iter_less_iterEEvT_S9_S9_RT0_, symObjAddr: 0x8448, symBinAddr: 0x100008C30, symSize: 0x90 }
  - { offset: 0x2A180, size: 0x8, addend: 0x0, symName: __ZN9__gnu_cxxltIPiSt6vectorIiSaIiEEEEbRKNS_17__normal_iteratorIT_T0_EESA_, symObjAddr: 0x8404, symBinAddr: 0x100008BEC, symSize: 0x44 }
  - { offset: 0x2A1CD, size: 0x8, addend: 0x0, symName: __ZSt11__make_heapIN9__gnu_cxx17__normal_iteratorIPiSt6vectorIiSaIiEEEENS0_5__ops15_Iter_less_iterEEvT_S9_RT0_, symObjAddr: 0x8324, symBinAddr: 0x100008B0C, symSize: 0xE0 }
  - { offset: 0x2A288, size: 0x8, addend: 0x0, symName: __ZNSt8_Rb_treeIiiSt9_IdentityIiESt4lessIiESaIiEE17_M_construct_nodeIJRKiEEEvPSt13_Rb_tree_nodeIiEDpOT_, symObjAddr: 0x8274, symBinAddr: 0x100008A5C, symSize: 0xB0 }
  - { offset: 0x2A34B, size: 0x8, addend: 0x0, symName: __ZNSt8_Rb_treeIiiSt9_IdentityIiESt4lessIiESaIiEE11_M_get_nodeEv, symObjAddr: 0x8238, symBinAddr: 0x100008A20, symSize: 0x3C }
  - { offset: 0x2A3A2, size: 0x8, addend: 0x0, symName: __ZNK9__gnu_cxx16__aligned_membufISt4pairIKiSt3setIiSt4lessIiESaIiEEEE6_M_ptrEv, symObjAddr: 0x821C, symBinAddr: 0x100008A04, symSize: 0x1C }
  - { offset: 0x2A3D6, size: 0x8, addend: 0x0, symName: __ZSt7forwardIRPSt13_Rb_tree_nodeISt4pairIKiSt3setIiSt4lessIiESaIiEEEEEOT_RNSt16remove_referenceISC_E4typeE, symObjAddr: 0x8208, symBinAddr: 0x1000089F0, symSize: 0x14 }
  - { offset: 0x2A492, size: 0x8, addend: 0x0, symName: __ZSt7forwardIRPSt13_Rb_tree_nodeISt4pairIKiiEEEOT_RNSt16remove_referenceIS7_E4typeE, symObjAddr: 0x81F4, symBinAddr: 0x1000089DC, symSize: 0x14 }
  - { offset: 0x2A544, size: 0x8, addend: 0x0, symName: __ZNK9__gnu_cxx16__aligned_membufISt4pairIKiiEE6_M_ptrEv, symObjAddr: 0x81D8, symBinAddr: 0x1000089C0, symSize: 0x1C }
  - { offset: 0x2A56E, size: 0x8, addend: 0x0, symName: __ZNSt15__new_allocatorISt13_Rb_tree_nodeISt4pairIKiSt3setIiSt4lessIiESaIiEEEEE10deallocateEPS9_m, symObjAddr: 0x8194, symBinAddr: 0x10000897C, symSize: 0x44 }
  - { offset: 0x2A60C, size: 0x8, addend: 0x0, symName: __ZNSt4pairIKiSt3setIiSt4lessIiESaIiEEED1Ev, symObjAddr: 0x8170, symBinAddr: 0x100008958, symSize: 0x24 }
  - { offset: 0x2A632, size: 0x8, addend: 0x0, symName: __ZNSt15__new_allocatorISt13_Rb_tree_nodeISt4pairIKiiEEE10deallocateEPS4_m, symObjAddr: 0x8134, symBinAddr: 0x10000891C, symSize: 0x3C }
  - { offset: 0x2A707, size: 0x8, addend: 0x0, symName: __ZNSt13_Rb_tree_nodeIiE9_M_valptrEv, symObjAddr: 0x8114, symBinAddr: 0x1000088FC, symSize: 0x20 }
  - { offset: 0x2A731, size: 0x8, addend: 0x0, symName: __ZNSt8_Rb_treeIiiSt9_IdentityIiESt4lessIiESaIiEE21_M_get_Node_allocatorEv, symObjAddr: 0x8100, symBinAddr: 0x1000088E8, symSize: 0x14 }
  - { offset: 0x2A757, size: 0x8, addend: 0x0, symName: __ZSt4copyIN9__gnu_cxx17__normal_iteratorIPKiSt6vectorIiSaIiEEEEPiET0_T_SA_S9_, symObjAddr: 0x80B8, symBinAddr: 0x1000088A0, symSize: 0x48 }
  - { offset: 0x2A7B5, size: 0x8, addend: 0x0, symName: __ZNSt14_Function_base13_Base_managerIZ11find_cyclesIiESt6vectorIS2_IiSaIiEESaIS4_EERK5graphIT_EiiEUliiE_E10_M_destroyERSt9_Any_dataSt17integral_constantIbLb0EE, symObjAddr: 0x8080, symBinAddr: 0x100008868, symSize: 0x38 }
  - { offset: 0x2A7E7, size: 0x8, addend: 0x0, symName: __ZNSt14_Function_base13_Base_managerIZ11find_cyclesIiESt6vectorIS2_IiSaIiEESaIS4_EERK5graphIT_EiiEUliiE_E15_M_init_functorIRKSC_EEvRSt9_Any_dataOS8_, symObjAddr: 0x8044, symBinAddr: 0x10000882C, symSize: 0x3C }
  - { offset: 0x2A829, size: 0x8, addend: 0x0, symName: __ZSt13__invoke_implIvRZ11find_cyclesIiESt6vectorIS1_IiSaIiEESaIS3_EERK5graphIT_EiiEUliiE_JiiEES7_St14__invoke_otherOT0_DpOT1_, symObjAddr: 0x7FE4, symBinAddr: 0x1000087CC, symSize: 0x60 }
  - { offset: 0x2A898, size: 0x8, addend: 0x0, symName: __ZSt7forwardIRZ11find_cyclesIiESt6vectorIS1_IiSaIiEESaIS3_EERK5graphIT_EiiEUliiE_EOS7_RNSt16remove_referenceIS7_E4typeE, symObjAddr: 0x7FD0, symBinAddr: 0x1000087B8, symSize: 0x14 }
  - { offset: 0x2A8D5, size: 0x8, addend: 0x0, symName: __ZNKSt9_Any_data9_M_accessIPZ11find_cyclesIiESt6vectorIS2_IiSaIiEESaIS4_EERK5graphIT_EiiEUliiE_EERKS8_v, symObjAddr: 0x7FB4, symBinAddr: 0x10000879C, symSize: 0x1C }
  - { offset: 0x2A904, size: 0x8, addend: 0x0, symName: __ZSt12__relocate_aIPSt6vectorIiSaIiEES3_SaIS2_EET0_T_S6_S5_RT1_, symObjAddr: 0x7F58, symBinAddr: 0x100008740, symSize: 0x5C }
  - { offset: 0x2A9A0, size: 0x8, addend: 0x0, symName: __ZSt20uninitialized_fill_nIPimiET_S1_T0_RKT1_, symObjAddr: 0x7F24, symBinAddr: 0x10000870C, symSize: 0x34 }
  - { offset: 0x2AA32, size: 0x8, addend: 0x0, symName: __ZNK9__gnu_cxx17__normal_iteratorIPN5graphIiE4edgeESt6vectorIS3_SaIS3_EEEdeEv, symObjAddr: 0x7F0C, symBinAddr: 0x1000086F4, symSize: 0x18 }
  - { offset: 0x2AA5C, size: 0x8, addend: 0x0, symName: __ZNK9__gnu_cxx17__normal_iteratorIPN5graphIiE4edgeESt6vectorIS3_SaIS3_EEEmiEl, symObjAddr: 0x7EBC, symBinAddr: 0x1000086A4, symSize: 0x50 }
  - { offset: 0x2AA93, size: 0x8, addend: 0x0, symName: __ZNSt6vectorIN5graphIiE4edgeESaIS2_EE11_S_relocateEPS2_S5_S5_RS3_, symObjAddr: 0x7E88, symBinAddr: 0x100008670, symSize: 0x34 }
  - { offset: 0x2AAF0, size: 0x8, addend: 0x0, symName: __ZSt12__to_addressIN5graphIiE4edgeEEPT_S4_, symObjAddr: 0x7E74, symBinAddr: 0x10000865C, symSize: 0x14 }
  - { offset: 0x2AB26, size: 0x8, addend: 0x0, symName: __ZNSt12_Vector_baseIN5graphIiE4edgeESaIS2_EE11_M_allocateEm, symObjAddr: 0x7E24, symBinAddr: 0x10000860C, symSize: 0x50 }
  - { offset: 0x2AB91, size: 0x8, addend: 0x0, symName: __ZN9__gnu_cxxmiIPN5graphIiE4edgeESt6vectorIS3_SaIS3_EEEENS_17__normal_iteratorIT_T0_E15difference_typeERKSB_SE_, symObjAddr: 0x7DD8, symBinAddr: 0x1000085C0, symSize: 0x4C }
  - { offset: 0x2ABE2, size: 0x8, addend: 0x0, symName: __ZNSt6vectorIN5graphIiE4edgeESaIS2_EE5beginEv, symObjAddr: 0x7DB4, symBinAddr: 0x10000859C, symSize: 0x24 }
  - { offset: 0x2AC0C, size: 0x8, addend: 0x0, symName: __ZNSt6vectorIN5graphIiE4edgeESaIS2_EE3endEv, symObjAddr: 0x7D8C, symBinAddr: 0x100008574, symSize: 0x28 }
  - { offset: 0x2AC36, size: 0x8, addend: 0x0, symName: __ZNKSt6vectorIN5graphIiE4edgeESaIS2_EE12_M_check_lenEmPKc, symObjAddr: 0x7CBC, symBinAddr: 0x1000084A4, symSize: 0xD0 }
  - { offset: 0x2ACD1, size: 0x8, addend: 0x0, symName: __ZSt8_DestroyISt6vectorIiSaIiEEEvPT_, symObjAddr: 0x7C9C, symBinAddr: 0x100008484, symSize: 0x20 }
  - { offset: 0x2AD03, size: 0x8, addend: 0x0, symName: __ZSt11__addressofISt6vectorIiSaIiEEEPT_RS3_, symObjAddr: 0x7C88, symBinAddr: 0x100008470, symSize: 0x14 }
  - { offset: 0x2AD39, size: 0x8, addend: 0x0, symName: __ZNSt15__new_allocatorISt6vectorIiSaIiEEE10deallocateEPS2_m, symObjAddr: 0x7C4C, symBinAddr: 0x100008434, symSize: 0x3C }
  - { offset: 0x2AD83, size: 0x8, addend: 0x0, symName: __ZNSt15__new_allocatorIN5graphIiE4edgeEE10deallocateEPS2_m, symObjAddr: 0x7C10, symBinAddr: 0x1000083F8, symSize: 0x3C }
  - { offset: 0x2ADC9, size: 0x8, addend: 0x0, symName: __ZSt27__uninitialized_default_n_aIPSt6vectorIiSaIiEEmS2_ET_S4_T0_RSaIT1_E, symObjAddr: 0x7BE8, symBinAddr: 0x1000083D0, symSize: 0x28 }
  - { offset: 0x2AE2C, size: 0x8, addend: 0x0, symName: __ZNKSt6vectorIS_IiSaIiEESaIS1_EE8max_sizeEv, symObjAddr: 0x7BC8, symBinAddr: 0x1000083B0, symSize: 0x20 }
  - { offset: 0x2AE68, size: 0x8, addend: 0x0, symName: __ZSt25__unguarded_linear_insertIN9__gnu_cxx17__normal_iteratorIPiSt6vectorIiSaIiEEEENS0_5__ops14_Val_less_iterEEvT_T0_, symObjAddr: 0x7B1C, symBinAddr: 0x100008304, symSize: 0xAC }
  - { offset: 0x2AED7, size: 0x8, addend: 0x0, symName: __ZSt13move_backwardIN9__gnu_cxx17__normal_iteratorIPiSt6vectorIiSaIiEEEES6_ET0_T_S8_S7_, symObjAddr: 0x7AD4, symBinAddr: 0x1000082BC, symSize: 0x48 }
  - { offset: 0x2AF3C, size: 0x8, addend: 0x0, symName: __ZSt4moveIRiEONSt16remove_referenceIT_E4typeEOS2_, symObjAddr: 0x7AC0, symBinAddr: 0x1000082A8, symSize: 0x14 }
  - { offset: 0x2AF7D, size: 0x8, addend: 0x0, symName: __ZNK9__gnu_cxx5__ops15_Iter_less_iterclINS_17__normal_iteratorIPiSt6vectorIiSaIiEEEES8_EEbT_T0_, symObjAddr: 0x7A78, symBinAddr: 0x100008260, symSize: 0x48 }
  - { offset: 0x2AFD5, size: 0x8, addend: 0x0, symName: __ZN9__gnu_cxxeqIPiSt6vectorIiSaIiEEEEbRKNS_17__normal_iteratorIT_T0_EESA_, symObjAddr: 0x7A34, symBinAddr: 0x10000821C, symSize: 0x44 }
  - { offset: 0x2B022, size: 0x8, addend: 0x0, symName: __ZSt21__unguarded_partitionIN9__gnu_cxx17__normal_iteratorIPiSt6vectorIiSaIiEEEENS0_5__ops15_Iter_less_iterEET_S9_S9_S9_T0_, symObjAddr: 0x797C, symBinAddr: 0x100008164, symSize: 0xB8 }
  - { offset: 0x2B091, size: 0x8, addend: 0x0, symName: __ZSt22__move_median_to_firstIN9__gnu_cxx17__normal_iteratorIPiSt6vectorIiSaIiEEEENS0_5__ops15_Iter_less_iterEEvT_S9_S9_S9_T0_, symObjAddr: 0x786C, symBinAddr: 0x100008054, symSize: 0x110 }
  - { offset: 0x2B110, size: 0x8, addend: 0x0, symName: __ZNK9__gnu_cxx17__normal_iteratorIPiSt6vectorIiSaIiEEEmiEl, symObjAddr: 0x7828, symBinAddr: 0x100008010, symSize: 0x44 }
  - { offset: 0x2B147, size: 0x8, addend: 0x0, symName: __ZSt11__sort_heapIN9__gnu_cxx17__normal_iteratorIPiSt6vectorIiSaIiEEEENS0_5__ops15_Iter_less_iterEEvT_S9_RT0_, symObjAddr: 0x77C0, symBinAddr: 0x100007FA8, symSize: 0x68 }
  - { offset: 0x2B1A5, size: 0x8, addend: 0x0, symName: __ZSt13__heap_selectIN9__gnu_cxx17__normal_iteratorIPiSt6vectorIiSaIiEEEENS0_5__ops15_Iter_less_iterEEvT_S9_S9_T0_, symObjAddr: 0x7724, symBinAddr: 0x100007F0C, symSize: 0x9C }
  - { offset: 0x2B23C, size: 0x8, addend: 0x0, symName: __ZNSt8_Rb_treeIiiSt9_IdentityIiESt4lessIiESaIiEE14_M_create_nodeIJRKiEEEPSt13_Rb_tree_nodeIiEDpOT_, symObjAddr: 0x76E4, symBinAddr: 0x100007ECC, symSize: 0x40 }
  - { offset: 0x2B29C, size: 0x8, addend: 0x0, symName: __ZSt7forwardIRPSt13_Rb_tree_nodeIiEEOT_RNSt16remove_referenceIS4_E4typeE, symObjAddr: 0x76D0, symBinAddr: 0x100007EB8, symSize: 0x14 }
  - { offset: 0x2B2D2, size: 0x8, addend: 0x0, symName: __ZNKSt10_Select1stISt4pairIKiSt3setIiSt4lessIiESaIiEEEEclERKS7_, symObjAddr: 0x76B8, symBinAddr: 0x100007EA0, symSize: 0x18 }
  - { offset: 0x2B30D, size: 0x8, addend: 0x0, symName: __ZNKSt13_Rb_tree_nodeISt4pairIKiSt3setIiSt4lessIiESaIiEEEE9_M_valptrEv, symObjAddr: 0x7698, symBinAddr: 0x100007E80, symSize: 0x20 }
  - { offset: 0x2B37F, size: 0x8, addend: 0x0, symName: __ZNSt4pairIPSt18_Rb_tree_node_baseS1_EC1IRPSt13_Rb_tree_nodeIS_IKiSt3setIiSt4lessIiESaIiEEEERS1_Lb1EEEOT_OT0_, symObjAddr: 0x7650, symBinAddr: 0x100007E38, symSize: 0x48 }
  - { offset: 0x2B3C9, size: 0x8, addend: 0x0, symName: __ZNSt8_Rb_treeIiSt4pairIKiSt3setIiSt4lessIiESaIiEEESt10_Select1stIS7_ES4_SaIS7_EE5beginEv, symObjAddr: 0x7628, symBinAddr: 0x100007E10, symSize: 0x28 }
  - { offset: 0x2B3F3, size: 0x8, addend: 0x0, symName: __ZNSt8_Rb_treeIiSt4pairIKiSt3setIiSt4lessIiESaIiEEESt10_Select1stIS7_ES4_SaIS7_EE17_M_construct_nodeIJRKSt21piecewise_construct_tSt5tupleIJRS1_EESG_IJEEEEEvPSt13_Rb_tree_nodeIS7_EDpOT_, symObjAddr: 0x74AC, symBinAddr: 0x100007C94, symSize: 0x17C }
  - { offset: 0x2B4F4, size: 0x8, addend: 0x0, symName: __ZNSt8_Rb_treeIiSt4pairIKiSt3setIiSt4lessIiESaIiEEESt10_Select1stIS7_ES4_SaIS7_EE11_M_get_nodeEv, symObjAddr: 0x7470, symBinAddr: 0x100007C58, symSize: 0x3C }
  - { offset: 0x2B54F, size: 0x8, addend: 0x0, symName: __ZN9__gnu_cxx16__aligned_membufISt4pairIKiSt3setIiSt4lessIiESaIiEEEE7_M_addrEv, symObjAddr: 0x745C, symBinAddr: 0x100007C44, symSize: 0x14 }
  - { offset: 0x2B575, size: 0x8, addend: 0x0, symName: __ZSt14__relocate_a_1IiiENSt9enable_ifIXsrSt24__is_bitwise_relocatableIT_vE5valueEPS2_E4typeES4_S4_S4_RSaIT0_E, symObjAddr: 0x73F8, symBinAddr: 0x100007BE0, symSize: 0x64 }
  - { offset: 0x2B5F5, size: 0x8, addend: 0x0, symName: __ZSt12__niter_baseIPiET_S1_, symObjAddr: 0x73E4, symBinAddr: 0x100007BCC, symSize: 0x14 }
  - { offset: 0x2B62C, size: 0x8, addend: 0x0, symName: __ZNSt15__new_allocatorIiE8allocateEmPKv, symObjAddr: 0x7368, symBinAddr: 0x100007B50, symSize: 0x7C }
  - { offset: 0x2B6BB, size: 0x8, addend: 0x0, symName: __ZSt7forwardIRPSt18_Rb_tree_node_baseEOT_RNSt16remove_referenceIS3_E4typeE, symObjAddr: 0x7354, symBinAddr: 0x100007B3C, symSize: 0x14 }
  - { offset: 0x2B739, size: 0x8, addend: 0x0, symName: __ZNSt4pairIPSt18_Rb_tree_node_baseS1_EC1IRPSt13_Rb_tree_nodeIS_IKiiEERS1_Lb1EEEOT_OT0_, symObjAddr: 0x730C, symBinAddr: 0x100007AF4, symSize: 0x48 }
  - { offset: 0x2B783, size: 0x8, addend: 0x0, symName: __ZNSt8_Rb_treeIiSt4pairIKiiESt10_Select1stIS2_ESt4lessIiESaIS2_EE17_M_construct_nodeIJRKSt21piecewise_construct_tSt5tupleIJRS1_EESD_IJEEEEEvPSt13_Rb_tree_nodeIS2_EDpOT_, symObjAddr: 0x7190, symBinAddr: 0x100007978, symSize: 0x17C }
  - { offset: 0x2B884, size: 0x8, addend: 0x0, symName: __ZNSt8_Rb_treeIiSt4pairIKiiESt10_Select1stIS2_ESt4lessIiESaIS2_EE11_M_get_nodeEv, symObjAddr: 0x7154, symBinAddr: 0x10000793C, symSize: 0x3C }
  - { offset: 0x2B8DB, size: 0x8, addend: 0x0, symName: __ZNKSt10_Select1stISt4pairIKiiEEclERKS2_, symObjAddr: 0x713C, symBinAddr: 0x100007924, symSize: 0x18 }
  - { offset: 0x2B916, size: 0x8, addend: 0x0, symName: __ZNKSt13_Rb_tree_nodeISt4pairIKiiEE9_M_valptrEv, symObjAddr: 0x711C, symBinAddr: 0x100007904, symSize: 0x20 }
  - { offset: 0x2B99F, size: 0x8, addend: 0x0, symName: __ZNSt8_Rb_treeIiSt4pairIKiSt3setIiSt4lessIiESaIiEEESt10_Select1stIS7_ES4_SaIS7_EE21_M_get_Node_allocatorEv, symObjAddr: 0x7108, symBinAddr: 0x1000078F0, symSize: 0x14 }
  - { offset: 0x2BA28, size: 0x8, addend: 0x0, symName: __ZNSt8_Rb_treeIiSt4pairIKiiESt10_Select1stIS2_ESt4lessIiESaIS2_EE21_M_get_Node_allocatorEv, symObjAddr: 0x70F4, symBinAddr: 0x1000078DC, symSize: 0x14 }
  - { offset: 0x2BA4E, size: 0x8, addend: 0x0, symName: __ZNSt8_Rb_treeIiiSt9_IdentityIiESt4lessIiESaIiEE8_S_rightEPKSt18_Rb_tree_node_base, symObjAddr: 0x70DC, symBinAddr: 0x1000078C4, symSize: 0x18 }
  - { offset: 0x2BA78, size: 0x8, addend: 0x0, symName: __ZNSt8_Rb_treeIiiSt9_IdentityIiESt4lessIiESaIiEE7_S_leftEPKSt18_Rb_tree_node_base, symObjAddr: 0x70C4, symBinAddr: 0x1000078AC, symSize: 0x18 }
  - { offset: 0x2BAAA, size: 0x8, addend: 0x0, symName: __ZNK9__gnu_cxx16__aligned_membufIiE7_M_addrEv, symObjAddr: 0x70B0, symBinAddr: 0x100007898, symSize: 0x14 }
  - { offset: 0x2BAD4, size: 0x8, addend: 0x0, symName: __ZNSt8_Rb_treeIiiSt9_IdentityIiESt4lessIiESaIiEE11_M_put_nodeEPSt13_Rb_tree_nodeIiE, symObjAddr: 0x7064, symBinAddr: 0x10000784C, symSize: 0x4C }
  - { offset: 0x2BB45, size: 0x8, addend: 0x0, symName: __ZNSt8_Rb_treeIiiSt9_IdentityIiESt4lessIiESaIiEE15_M_destroy_nodeEPSt13_Rb_tree_nodeIiE, symObjAddr: 0x700C, symBinAddr: 0x1000077F4, symSize: 0x58 }
  - { offset: 0x2BBF1, size: 0x8, addend: 0x0, symName: __ZNSt20__uninitialized_copyILb1EE13__uninit_copyIN9__gnu_cxx17__normal_iteratorIPKiSt6vectorIiSaIiEEEEPiEET0_T_SC_SB_, symObjAddr: 0x6FE0, symBinAddr: 0x1000077C8, symSize: 0x2C }
  - { offset: 0x2BC4C, size: 0x8, addend: 0x0, symName: __ZNSt14_Function_base13_Base_managerIZ11find_cyclesIiESt6vectorIS2_IiSaIiEESaIS4_EERK5graphIT_EiiEUliiE_E10_M_managerERSt9_Any_dataRKSE_St18_Manager_operation, symObjAddr: 0x6F24, symBinAddr: 0x10000770C, symSize: 0xBC }
  - { offset: 0x2BCA0, size: 0x8, addend: 0x0, symName: __ZNSt9_Any_data9_M_accessIPZ11find_cyclesIiESt6vectorIS2_IiSaIiEESaIS4_EERK5graphIT_EiiEUliiE_EERS8_v, symObjAddr: 0x6F08, symBinAddr: 0x1000076F0, symSize: 0x1C }
  - { offset: 0x2BCCF, size: 0x8, addend: 0x0, symName: __ZSt10__invoke_rIvRZ11find_cyclesIiESt6vectorIS1_IiSaIiEESaIS3_EERK5graphIT_EiiEUliiE_JiiEENSt9enable_ifIX16is_invocable_r_vIS7_T0_JDpT1_EEES7_E4typeEOSE_DpOSF_, symObjAddr: 0x6EA4, symBinAddr: 0x10000768C, symSize: 0x64 }
  - { offset: 0x2BD2E, size: 0x8, addend: 0x0, symName: __ZNSt14_Function_base13_Base_managerIZ11find_cyclesIiESt6vectorIS2_IiSaIiEESaIS4_EERK5graphIT_EiiEUliiE_E14_M_get_pointerERKSt9_Any_data, symObjAddr: 0x6E84, symBinAddr: 0x10000766C, symSize: 0x20 }
  - { offset: 0x2BD5E, size: 0x8, addend: 0x0, symName: __ZNSt14_Function_base13_Base_managerIZ11find_cyclesIiESt6vectorIS2_IiSaIiEESaIS4_EERK5graphIT_EiiEUliiE_E9_M_createISC_EEvRSt9_Any_dataOS8_St17integral_constantIbLb0EE, symObjAddr: 0x6E14, symBinAddr: 0x1000075FC, symSize: 0x70 }
  - { offset: 0x2BDD5, size: 0x8, addend: 0x0, symName: __ZNSt6vectorIS_IiSaIiEESaIS1_EE11_S_relocateEPS1_S4_S4_RS2_, symObjAddr: 0x6DE0, symBinAddr: 0x1000075C8, symSize: 0x34 }
  - { offset: 0x2BE32, size: 0x8, addend: 0x0, symName: __ZSt12__to_addressISt6vectorIiSaIiEEEPT_S4_, symObjAddr: 0x6DCC, symBinAddr: 0x1000075B4, symSize: 0x14 }
  - { offset: 0x2BE68, size: 0x8, addend: 0x0, symName: __ZNSt12_Vector_baseISt6vectorIiSaIiEESaIS2_EE11_M_allocateEm, symObjAddr: 0x6D7C, symBinAddr: 0x100007564, symSize: 0x50 }
  - { offset: 0x2BED3, size: 0x8, addend: 0x0, symName: __ZN9__gnu_cxxmiIPSt6vectorIiSaIiEES1_IS3_SaIS3_EEEENS_17__normal_iteratorIT_T0_E15difference_typeERKSA_SD_, symObjAddr: 0x6D30, symBinAddr: 0x100007518, symSize: 0x4C }
  - { offset: 0x2BF24, size: 0x8, addend: 0x0, symName: __ZNKSt6vectorIS_IiSaIiEESaIS1_EE12_M_check_lenEmPKc, symObjAddr: 0x6C60, symBinAddr: 0x100007448, symSize: 0xD0 }
  - { offset: 0x2BFC6, size: 0x8, addend: 0x0, symName: __ZSt7forwardIRKSt6vectorIiSaIiEEEOT_RNSt16remove_referenceIS5_E4typeE, symObjAddr: 0x6C4C, symBinAddr: 0x100007434, symSize: 0x14 }
  - { offset: 0x2C00E, size: 0x8, addend: 0x0, symName: __ZSt24__uninitialized_fill_n_aIPimiiET_S1_T0_RKT1_RSaIT2_E, symObjAddr: 0x6C1C, symBinAddr: 0x100007404, symSize: 0x30 }
  - { offset: 0x2C087, size: 0x8, addend: 0x0, symName: __ZNSt6vectorIiSaIiEE11_S_max_sizeERKS0_, symObjAddr: 0x6BC8, symBinAddr: 0x1000073B0, symSize: 0x54 }
  - { offset: 0x2C142, size: 0x8, addend: 0x0, symName: __ZNSt6vectorIN5graphIiE4edgeESaIS2_EE4backEv, symObjAddr: 0x6B90, symBinAddr: 0x100007378, symSize: 0x38 }
  - { offset: 0x2C16C, size: 0x8, addend: 0x0, symName: __ZNSt6vectorIN5graphIiE4edgeESaIS2_EE17_M_realloc_appendIJS2_EEEvDpOT_, symObjAddr: 0x6998, symBinAddr: 0x100007180, symSize: 0x1F8 }
  - { offset: 0x2C2F1, size: 0x8, addend: 0x0, symName: __ZZNSt6vectorIN5graphIiE4edgeESaIS2_EE17_M_realloc_appendIJS2_EEEvDpOT_EN6_GuardC1EPS2_mRS3_, symObjAddr: 0x68F4, symBinAddr: 0x1000070DC, symSize: 0x44 }
  - { offset: 0x2C336, size: 0x8, addend: 0x0, symName: __ZZNSt6vectorIN5graphIiE4edgeESaIS2_EE17_M_realloc_appendIJS2_EEEvDpOT_EN6_GuardD1Ev, symObjAddr: 0x6938, symBinAddr: 0x100007120, symSize: 0x60 }
  - { offset: 0x2C470, size: 0x8, addend: 0x0, symName: __ZSt7forwardIN5graphIiE4edgeEEOT_RNSt16remove_referenceIS3_E4typeE, symObjAddr: 0x68E0, symBinAddr: 0x1000070C8, symSize: 0x14 }
  - { offset: 0x2C4AA, size: 0x8, addend: 0x0, symName: __ZN9__gnu_cxx16__aligned_membufISt4pairIKiiEE7_M_addrEv, symObjAddr: 0x68CC, symBinAddr: 0x1000070B4, symSize: 0x14 }
  - { offset: 0x2C4D0, size: 0x8, addend: 0x0, symName: __ZNSt12_Destroy_auxILb0EE9__destroyIPSt6vectorIiSaIiEEEEvT_S6_, symObjAddr: 0x6880, symBinAddr: 0x100007068, symSize: 0x4C }
  - { offset: 0x2C544, size: 0x8, addend: 0x0, symName: __ZNSt12_Destroy_auxILb1EE9__destroyIPN5graphIiE4edgeEEEvT_S6_, symObjAddr: 0x6868, symBinAddr: 0x100007050, symSize: 0x18 }
  - { offset: 0x2C5AE, size: 0x8, addend: 0x0, symName: __ZNSt6vectorIS_IiSaIiEESaIS1_EE15_M_erase_at_endEPS1_, symObjAddr: 0x67D4, symBinAddr: 0x100006FBC, symSize: 0x94 }
  - { offset: 0x2C643, size: 0x8, addend: 0x0, symName: __ZNSt6vectorIS_IiSaIiEESaIS1_EE17_M_default_appendEm, symObjAddr: 0x6580, symBinAddr: 0x100006D68, symSize: 0x254 }
  - { offset: 0x2C7E5, size: 0x8, addend: 0x0, symName: __ZZNSt6vectorIS_IiSaIiEESaIS1_EE17_M_default_appendEmEN6_GuardC1EPS1_mRS2_, symObjAddr: 0x64DC, symBinAddr: 0x100006CC4, symSize: 0x44 }
  - { offset: 0x2C82A, size: 0x8, addend: 0x0, symName: __ZZNSt6vectorIS_IiSaIiEESaIS1_EE17_M_default_appendEmEN6_GuardD1Ev, symObjAddr: 0x6520, symBinAddr: 0x100006D08, symSize: 0x60 }
  - { offset: 0x2C8AC, size: 0x8, addend: 0x0, symName: __ZNSt15__new_allocatorIN5graphIiE4edgeEED2Ev, symObjAddr: 0x64C8, symBinAddr: 0x100006CB0, symSize: 0x14 }
  - { offset: 0x2C8EC, size: 0x8, addend: 0x0, symName: __ZNSt12_Vector_baseIN5graphIiE4edgeESaIS2_EE17_Vector_impl_dataC2Ev, symObjAddr: 0x649C, symBinAddr: 0x100006C84, symSize: 0x2C }
  - { offset: 0x2C924, size: 0x8, addend: 0x0, symName: __ZSt26__unguarded_insertion_sortIN9__gnu_cxx17__normal_iteratorIPiSt6vectorIiSaIiEEEENS0_5__ops15_Iter_less_iterEEvT_S9_T0_, symObjAddr: 0x6430, symBinAddr: 0x100006C18, symSize: 0x6C }
  - { offset: 0x2C9A6, size: 0x8, addend: 0x0, symName: __ZSt16__insertion_sortIN9__gnu_cxx17__normal_iteratorIPiSt6vectorIiSaIiEEEENS0_5__ops15_Iter_less_iterEEvT_S9_T0_, symObjAddr: 0x6334, symBinAddr: 0x100006B1C, symSize: 0xFC }
  - { offset: 0x2CA50, size: 0x8, addend: 0x0, symName: __ZNK9__gnu_cxx17__normal_iteratorIPiSt6vectorIiSaIiEEEplEl, symObjAddr: 0x62F4, symBinAddr: 0x100006ADC, symSize: 0x40 }
  - { offset: 0x2CA87, size: 0x8, addend: 0x0, symName: __ZSt27__unguarded_partition_pivotIN9__gnu_cxx17__normal_iteratorIPiSt6vectorIiSaIiEEEENS0_5__ops15_Iter_less_iterEET_S9_S9_T0_, symObjAddr: 0x6250, symBinAddr: 0x100006A38, symSize: 0xA4 }
  - { offset: 0x2CAF6, size: 0x8, addend: 0x0, symName: __ZSt14__partial_sortIN9__gnu_cxx17__normal_iteratorIPiSt6vectorIiSaIiEEEENS0_5__ops15_Iter_less_iterEEvT_S9_S9_T0_, symObjAddr: 0x6204, symBinAddr: 0x1000069EC, symSize: 0x4C }
  - { offset: 0x2CB6C, size: 0x8, addend: 0x0, symName: __ZSt7forwardISt17_Rb_tree_iteratorIiEEOT_RNSt16remove_referenceIS2_E4typeE, symObjAddr: 0x61F0, symBinAddr: 0x1000069D8, symSize: 0x14 }
  - { offset: 0x2CBAD, size: 0x8, addend: 0x0, symName: __ZNKSt8_Rb_treeIiiSt9_IdentityIiESt4lessIiESaIiEE11_Alloc_nodeclIRKiEEPSt13_Rb_tree_nodeIiEOT_, symObjAddr: 0x61B4, symBinAddr: 0x10000699C, symSize: 0x3C }
  - { offset: 0x2CBF1, size: 0x8, addend: 0x0, symName: __ZNSt17_Rb_tree_iteratorIiEmmEv, symObjAddr: 0x6184, symBinAddr: 0x10000696C, symSize: 0x30 }
  - { offset: 0x2CC63, size: 0x8, addend: 0x0, symName: __ZNSt4pairIPSt18_Rb_tree_node_baseS1_EC1IRPSt13_Rb_tree_nodeIiERS1_Lb1EEEOT_OT0_, symObjAddr: 0x613C, symBinAddr: 0x100006924, symSize: 0x48 }
  - { offset: 0x2CCB0, size: 0x8, addend: 0x0, symName: __ZSteqRKSt17_Rb_tree_iteratorIiES2_, symObjAddr: 0x610C, symBinAddr: 0x1000068F4, symSize: 0x30 }
  - { offset: 0x2CCEF, size: 0x8, addend: 0x0, symName: __ZNSt8_Rb_treeIiiSt9_IdentityIiESt4lessIiESaIiEE5beginEv, symObjAddr: 0x60E4, symBinAddr: 0x1000068CC, symSize: 0x28 }
  - { offset: 0x2CD15, size: 0x8, addend: 0x0, symName: __ZNSt8_Rb_treeIiiSt9_IdentityIiESt4lessIiESaIiEE6_S_keyEPKSt13_Rb_tree_nodeIiE, symObjAddr: 0x60BC, symBinAddr: 0x1000068A4, symSize: 0x28 }
  - { offset: 0x2CD43, size: 0x8, addend: 0x0, symName: __ZNSt8_Rb_treeIiiSt9_IdentityIiESt4lessIiESaIiEE6_M_endEv, symObjAddr: 0x60A4, symBinAddr: 0x10000688C, symSize: 0x18 }
  - { offset: 0x2CD6D, size: 0x8, addend: 0x0, symName: __ZNSt8_Rb_treeIiSt4pairIKiSt3setIiSt4lessIiESaIiEEESt10_Select1stIS7_ES4_SaIS7_EE14_M_insert_nodeEPSt18_Rb_tree_node_baseSD_PSt13_Rb_tree_nodeIS7_E, symObjAddr: 0x5FD4, symBinAddr: 0x1000067BC, symSize: 0xD0 }
  - { offset: 0x2CDD7, size: 0x8, addend: 0x0, symName: __ZNSt8_Rb_treeIiSt4pairIKiSt3setIiSt4lessIiESaIiEEESt10_Select1stIS7_ES4_SaIS7_EE6_S_keyEPKSt13_Rb_tree_nodeIS7_E, symObjAddr: 0x5FAC, symBinAddr: 0x100006794, symSize: 0x28 }
  - { offset: 0x2CE05, size: 0x8, addend: 0x0, symName: __ZNSt17_Rb_tree_iteratorISt4pairIKiSt3setIiSt4lessIiESaIiEEEEppEv, symObjAddr: 0x5F7C, symBinAddr: 0x100006764, symSize: 0x30 }
  - { offset: 0x2CE2F, size: 0x8, addend: 0x0, symName: __ZNSt17_Rb_tree_iteratorISt4pairIKiSt3setIiSt4lessIiESaIiEEEEmmEv, symObjAddr: 0x5F4C, symBinAddr: 0x100006734, symSize: 0x30 }
  - { offset: 0x2CE59, size: 0x8, addend: 0x0, symName: __ZNSt8_Rb_treeIiSt4pairIKiSt3setIiSt4lessIiESaIiEEESt10_Select1stIS7_ES4_SaIS7_EE11_M_leftmostEv, symObjAddr: 0x5F34, symBinAddr: 0x10000671C, symSize: 0x18 }
  - { offset: 0x2CE83, size: 0x8, addend: 0x0, symName: __ZNSt8_Rb_treeIiSt4pairIKiSt3setIiSt4lessIiESaIiEEESt10_Select1stIS7_ES4_SaIS7_EE24_M_get_insert_unique_posERS1_, symObjAddr: 0x5DDC, symBinAddr: 0x1000065C4, symSize: 0x158 }
  - { offset: 0x2CF03, size: 0x8, addend: 0x0, symName: __ZNSt8_Rb_treeIiSt4pairIKiSt3setIiSt4lessIiESaIiEEESt10_Select1stIS7_ES4_SaIS7_EE6_S_keyEPKSt18_Rb_tree_node_base, symObjAddr: 0x5DC0, symBinAddr: 0x1000065A8, symSize: 0x1C }
  - { offset: 0x2CF31, size: 0x8, addend: 0x0, symName: __ZNSt8_Rb_treeIiSt4pairIKiSt3setIiSt4lessIiESaIiEEESt10_Select1stIS7_ES4_SaIS7_EE12_M_rightmostEv, symObjAddr: 0x5DA8, symBinAddr: 0x100006590, symSize: 0x18 }
  - { offset: 0x2CF5B, size: 0x8, addend: 0x0, symName: __ZNKSt23_Rb_tree_const_iteratorISt4pairIKiSt3setIiSt4lessIiESaIiEEEE13_M_const_castEv, symObjAddr: 0x5D80, symBinAddr: 0x100006568, symSize: 0x28 }
  - { offset: 0x2CF85, size: 0x8, addend: 0x0, symName: __ZNSt8_Rb_treeIiSt4pairIKiSt3setIiSt4lessIiESaIiEEESt10_Select1stIS7_ES4_SaIS7_EE14_M_create_nodeIJRKSt21piecewise_construct_tSt5tupleIJRS1_EESG_IJEEEEEPSt13_Rb_tree_nodeIS7_EDpOT_, symObjAddr: 0x5D10, symBinAddr: 0x1000064F8, symSize: 0x70 }
  - { offset: 0x2CFF7, size: 0x8, addend: 0x0, symName: __ZN9__gnu_cxx16__aligned_membufISt4pairIKiSt3setIiSt4lessIiESaIiEEEE6_M_ptrEv, symObjAddr: 0x5CF4, symBinAddr: 0x1000064DC, symSize: 0x1C }
  - { offset: 0x2D021, size: 0x8, addend: 0x0, symName: __ZNSt8_Rb_treeIiSt4pairIKiSt3setIiSt4lessIiESaIiEEESt10_Select1stIS7_ES4_SaIS7_EE14_M_lower_boundEPSt13_Rb_tree_nodeIS7_EPSt18_Rb_tree_node_baseRS1_, symObjAddr: 0x5C58, symBinAddr: 0x100006440, symSize: 0x9C }
  - { offset: 0x2D07E, size: 0x8, addend: 0x0, symName: __ZNSt8_Rb_treeIiSt4pairIKiSt3setIiSt4lessIiESaIiEEESt10_Select1stIS7_ES4_SaIS7_EE6_M_endEv, symObjAddr: 0x5C40, symBinAddr: 0x100006428, symSize: 0x18 }
  - { offset: 0x2D0A4, size: 0x8, addend: 0x0, symName: __ZSt12__relocate_aIPiS0_SaIiEET0_T_S3_S2_RT1_, symObjAddr: 0x5BE4, symBinAddr: 0x1000063CC, symSize: 0x5C }
  - { offset: 0x2D144, size: 0x8, addend: 0x0, symName: __ZNKSt6vectorIiSaIiEE8max_sizeEv, symObjAddr: 0x5BC4, symBinAddr: 0x1000063AC, symSize: 0x20 }
  - { offset: 0x2D16E, size: 0x8, addend: 0x0, symName: __ZNSt8_Rb_treeIiSt4pairIKiiESt10_Select1stIS2_ESt4lessIiESaIS2_EE14_M_insert_nodeEPSt18_Rb_tree_node_baseSA_PSt13_Rb_tree_nodeIS2_E, symObjAddr: 0x5AF4, symBinAddr: 0x1000062DC, symSize: 0xD0 }
  - { offset: 0x2D1DC, size: 0x8, addend: 0x0, symName: __ZNSt17_Rb_tree_iteratorISt4pairIKiiEEmmEv, symObjAddr: 0x5AC4, symBinAddr: 0x1000062AC, symSize: 0x30 }
  - { offset: 0x2D24E, size: 0x8, addend: 0x0, symName: __ZNSt4pairIPSt18_Rb_tree_node_baseS1_EC1IRS1_S4_Lb1EEEOT_OT0_, symObjAddr: 0x5A7C, symBinAddr: 0x100006264, symSize: 0x48 }
  - { offset: 0x2D298, size: 0x8, addend: 0x0, symName: __ZNSt8_Rb_treeIiSt4pairIKiiESt10_Select1stIS2_ESt4lessIiESaIS2_EE11_M_leftmostEv, symObjAddr: 0x5A64, symBinAddr: 0x10000624C, symSize: 0x18 }
  - { offset: 0x2D2C2, size: 0x8, addend: 0x0, symName: __ZNSt8_Rb_treeIiSt4pairIKiiESt10_Select1stIS2_ESt4lessIiESaIS2_EE24_M_get_insert_unique_posERS1_, symObjAddr: 0x590C, symBinAddr: 0x1000060F4, symSize: 0x158 }
  - { offset: 0x2D38E, size: 0x8, addend: 0x0, symName: __ZNSt4pairIPSt18_Rb_tree_node_baseS1_EC1IS1_S1_Lb1EEERKS1_S5_, symObjAddr: 0x58D0, symBinAddr: 0x1000060B8, symSize: 0x3C }
  - { offset: 0x2D3D8, size: 0x8, addend: 0x0, symName: __ZNSt8_Rb_treeIiSt4pairIKiiESt10_Select1stIS2_ESt4lessIiESaIS2_EE12_M_rightmostEv, symObjAddr: 0x58B8, symBinAddr: 0x1000060A0, symSize: 0x18 }
  - { offset: 0x2D402, size: 0x8, addend: 0x0, symName: __ZNKSt23_Rb_tree_const_iteratorISt4pairIKiiEE13_M_const_castEv, symObjAddr: 0x5890, symBinAddr: 0x100006078, symSize: 0x28 }
  - { offset: 0x2D42C, size: 0x8, addend: 0x0, symName: __ZNSt8_Rb_treeIiSt4pairIKiiESt10_Select1stIS2_ESt4lessIiESaIS2_EE14_M_create_nodeIJRKSt21piecewise_construct_tSt5tupleIJRS1_EESD_IJEEEEEPSt13_Rb_tree_nodeIS2_EDpOT_, symObjAddr: 0x5820, symBinAddr: 0x100006008, symSize: 0x70 }
  - { offset: 0x2D4C5, size: 0x8, addend: 0x0, symName: __ZNSt10_Head_baseILm0ERKiLb0EEC2ES1_, symObjAddr: 0x57FC, symBinAddr: 0x100005FE4, symSize: 0x24 }
  - { offset: 0x2D4F4, size: 0x8, addend: 0x0, symName: __ZNSt8_Rb_treeIiSt4pairIKiiESt10_Select1stIS2_ESt4lessIiESaIS2_EE14_M_lower_boundEPSt13_Rb_tree_nodeIS2_EPSt18_Rb_tree_node_baseRS1_, symObjAddr: 0x5760, symBinAddr: 0x100005F48, symSize: 0x9C }
  - { offset: 0x2D551, size: 0x8, addend: 0x0, symName: __ZNSt8_Rb_treeIiSt4pairIKiiESt10_Select1stIS2_ESt4lessIiESaIS2_EE6_M_endEv, symObjAddr: 0x5748, symBinAddr: 0x100005F30, symSize: 0x18 }
  - { offset: 0x2D577, size: 0x8, addend: 0x0, symName: __ZNSt8_Rb_treeIiSt4pairIKiiESt10_Select1stIS2_ESt4lessIiESaIS2_EE8_S_rightEPKSt18_Rb_tree_node_base, symObjAddr: 0x5730, symBinAddr: 0x100005F18, symSize: 0x18 }
  - { offset: 0x2D5A1, size: 0x8, addend: 0x0, symName: __ZNSt8_Rb_treeIiSt4pairIKiiESt10_Select1stIS2_ESt4lessIiESaIS2_EE7_S_leftEPKSt18_Rb_tree_node_base, symObjAddr: 0x5718, symBinAddr: 0x100005F00, symSize: 0x18 }
  - { offset: 0x2D5CB, size: 0x8, addend: 0x0, symName: __ZNSt8_Rb_treeIiSt4pairIKiiESt10_Select1stIS2_ESt4lessIiESaIS2_EE6_S_keyEPKSt13_Rb_tree_nodeIS2_E, symObjAddr: 0x56F0, symBinAddr: 0x100005ED8, symSize: 0x28 }
  - { offset: 0x2D5F9, size: 0x8, addend: 0x0, symName: __ZNSt8_Rb_treeIiSt4pairIKiSt3setIiSt4lessIiESaIiEEESt10_Select1stIS7_ES4_SaIS7_EE11_M_put_nodeEPSt13_Rb_tree_nodeIS7_E, symObjAddr: 0x56A4, symBinAddr: 0x100005E8C, symSize: 0x4C }
  - { offset: 0x2D66A, size: 0x8, addend: 0x0, symName: __ZNSt8_Rb_treeIiSt4pairIKiSt3setIiSt4lessIiESaIiEEESt10_Select1stIS7_ES4_SaIS7_EE15_M_destroy_nodeEPSt13_Rb_tree_nodeIS7_E, symObjAddr: 0x5644, symBinAddr: 0x100005E2C, symSize: 0x60 }
  - { offset: 0x2D6FB, size: 0x8, addend: 0x0, symName: __ZNSt12_Destroy_auxILb1EE9__destroyIPiEEvT_S3_, symObjAddr: 0x562C, symBinAddr: 0x100005E14, symSize: 0x18 }
  - { offset: 0x2D733, size: 0x8, addend: 0x0, symName: __ZNSt15__new_allocatorIiE10deallocateEPim, symObjAddr: 0x55FC, symBinAddr: 0x100005DE4, symSize: 0x30 }
  - { offset: 0x2D77D, size: 0x8, addend: 0x0, symName: __ZNSt8_Rb_treeIiSt4pairIKiiESt10_Select1stIS2_ESt4lessIiESaIS2_EE11_M_put_nodeEPSt13_Rb_tree_nodeIS2_E, symObjAddr: 0x55B0, symBinAddr: 0x100005D98, symSize: 0x4C }
  - { offset: 0x2D7EE, size: 0x8, addend: 0x0, symName: __ZNSt8_Rb_treeIiSt4pairIKiiESt10_Select1stIS2_ESt4lessIiESaIS2_EE15_M_destroy_nodeEPSt13_Rb_tree_nodeIS2_E, symObjAddr: 0x5558, symBinAddr: 0x100005D40, symSize: 0x58 }
  - { offset: 0x2D87F, size: 0x8, addend: 0x0, symName: __ZSt13__countl_zeroImEiT_, symObjAddr: 0x5504, symBinAddr: 0x100005CEC, symSize: 0x54 }
  - { offset: 0x2D914, size: 0x8, addend: 0x0, symName: __ZNSt8_Rb_treeIiiSt9_IdentityIiESt4lessIiESaIiEE6_S_keyEPKSt18_Rb_tree_node_base, symObjAddr: 0x54E8, symBinAddr: 0x100005CD0, symSize: 0x1C }
  - { offset: 0x2D942, size: 0x8, addend: 0x0, symName: __ZNKSt8_Rb_treeIiiSt9_IdentityIiESt4lessIiESaIiEE14_M_lower_boundEPKSt13_Rb_tree_nodeIiEPKSt18_Rb_tree_node_baseRKi, symObjAddr: 0x544C, symBinAddr: 0x100005C34, symSize: 0x9C }
  - { offset: 0x2D99F, size: 0x8, addend: 0x0, symName: __ZNKSt8_Rb_treeIiiSt9_IdentityIiESt4lessIiESaIiEE6_M_endEv, symObjAddr: 0x5434, symBinAddr: 0x100005C1C, symSize: 0x18 }
  - { offset: 0x2D9C9, size: 0x8, addend: 0x0, symName: __ZNKSt8_Rb_treeIiiSt9_IdentityIiESt4lessIiESaIiEE8_M_beginEv, symObjAddr: 0x541C, symBinAddr: 0x100005C04, symSize: 0x18 }
  - { offset: 0x2D9F3, size: 0x8, addend: 0x0, symName: __ZNK9__gnu_cxx16__aligned_membufIiE6_M_ptrEv, symObjAddr: 0x5400, symBinAddr: 0x100005BE8, symSize: 0x1C }
  - { offset: 0x2DA45, size: 0x8, addend: 0x0, symName: __ZNSt23_Rb_tree_const_iteratorIiEC1EPKSt18_Rb_tree_node_base, symObjAddr: 0x53DC, symBinAddr: 0x100005BC4, symSize: 0x24 }
  - { offset: 0x2DA74, size: 0x8, addend: 0x0, symName: __ZNKSt8_Rb_treeIiiSt9_IdentityIiESt4lessIiESaIiEE9_M_mbeginEv, symObjAddr: 0x53C4, symBinAddr: 0x100005BAC, symSize: 0x18 }
  - { offset: 0x2DA9E, size: 0x8, addend: 0x0, symName: __ZNSt8_Rb_treeIiiSt9_IdentityIiESt4lessIiESaIiEE12_M_drop_nodeEPSt13_Rb_tree_nodeIiE, symObjAddr: 0x5390, symBinAddr: 0x100005B78, symSize: 0x34 }
  - { offset: 0x2DAD5, size: 0x8, addend: 0x0, symName: __ZNSt8_Rb_treeIiiSt9_IdentityIiESt4lessIiESaIiEE7_S_leftEPSt18_Rb_tree_node_base, symObjAddr: 0x5378, symBinAddr: 0x100005B60, symSize: 0x18 }
  - { offset: 0x2DAFF, size: 0x8, addend: 0x0, symName: __ZNSt8_Rb_treeIiiSt9_IdentityIiESt4lessIiESaIiEE8_S_rightEPSt18_Rb_tree_node_base, symObjAddr: 0x5360, symBinAddr: 0x100005B48, symSize: 0x18 }
  - { offset: 0x2DB6A, size: 0x8, addend: 0x0, symName: __ZNSt12_Vector_baseIiSaIiEE17_Vector_impl_dataC2EOS2_, symObjAddr: 0x52F0, symBinAddr: 0x100005AD8, symSize: 0x70 }
  - { offset: 0x2DBC6, size: 0x8, addend: 0x0, symName: __ZSt4moveIRNSt12_Vector_baseIiSaIiEE12_Vector_implEEONSt16remove_referenceIT_E4typeEOS6_, symObjAddr: 0x52DC, symBinAddr: 0x100005AC4, symSize: 0x14 }
  - { offset: 0x2DBF8, size: 0x8, addend: 0x0, symName: __ZSt18uninitialized_copyIN9__gnu_cxx17__normal_iteratorIPKiSt6vectorIiSaIiEEEEPiET0_T_SA_S9_, symObjAddr: 0x52A0, symBinAddr: 0x100005A88, symSize: 0x3C }
  - { offset: 0x2DC77, size: 0x8, addend: 0x0, symName: __ZNSt12_Vector_baseIiSaIiEE17_M_create_storageEm, symObjAddr: 0x5240, symBinAddr: 0x100005A28, symSize: 0x60 }
  - { offset: 0x2DCD9, size: 0x8, addend: 0x0, symName: __ZNSt12_Vector_baseIiSaIiEE12_Vector_implC1ERKS0_, symObjAddr: 0x51F4, symBinAddr: 0x1000059DC, symSize: 0x4C }
  - { offset: 0x2DD72, size: 0x8, addend: 0x0, symName: __ZNSt17_Function_handlerIFviiEZ11find_cyclesIiESt6vectorIS2_IiSaIiEESaIS4_EERK5graphIT_EiiEUliiE_E10_M_managerERSt9_Any_dataRKSE_St18_Manager_operation, symObjAddr: 0x5170, symBinAddr: 0x100005958, symSize: 0x84 }
  - { offset: 0x2DDBE, size: 0x8, addend: 0x0, symName: __ZNSt17_Function_handlerIFviiEZ11find_cyclesIiESt6vectorIS2_IiSaIiEESaIS4_EERK5graphIT_EiiEUliiE_E9_M_invokeERKSt9_Any_dataOiSH_, symObjAddr: 0x5118, symBinAddr: 0x100005900, symSize: 0x58 }
  - { offset: 0x2DE0A, size: 0x8, addend: 0x0, symName: __ZNSt14_Function_base13_Base_managerIZ11find_cyclesIiESt6vectorIS2_IiSaIiEESaIS4_EERK5graphIT_EiiEUliiE_E15_M_init_functorISC_EEvRSt9_Any_dataOS8_, symObjAddr: 0x50DC, symBinAddr: 0x1000058C4, symSize: 0x3C }
  - { offset: 0x2DE53, size: 0x8, addend: 0x0, symName: __ZSt7forwardIZ11find_cyclesIiESt6vectorIS1_IiSaIiEESaIS3_EERK5graphIT_EiiEUliiE_EOS7_RNSt16remove_referenceIS7_E4typeE, symObjAddr: 0x50C8, symBinAddr: 0x1000058B0, symSize: 0x14 }
  - { offset: 0x2DE85, size: 0x8, addend: 0x0, symName: __ZNSt14_Function_base13_Base_managerIZ11find_cyclesIiESt6vectorIS2_IiSaIiEESaIS4_EERK5graphIT_EiiEUliiE_E21_M_not_empty_functionISC_EEbRKS8_, symObjAddr: 0x50B4, symBinAddr: 0x10000589C, symSize: 0x14 }
  - { offset: 0x2DEE1, size: 0x8, addend: 0x0, symName: __ZNSt6vectorIS_IiSaIiEESaIS1_EE17_M_realloc_appendIJRKS1_EEEvDpOT_, symObjAddr: 0x4E8C, symBinAddr: 0x100005674, symSize: 0x228 }
  - { offset: 0x2E066, size: 0x8, addend: 0x0, symName: __ZZNSt6vectorIS_IiSaIiEESaIS1_EE17_M_realloc_appendIJRKS1_EEEvDpOT_EN6_GuardC1EPS1_mRS2_, symObjAddr: 0x4DE8, symBinAddr: 0x1000055D0, symSize: 0x44 }
  - { offset: 0x2E0AB, size: 0x8, addend: 0x0, symName: __ZZNSt6vectorIS_IiSaIiEESaIS1_EE17_M_realloc_appendIJRKS1_EEEvDpOT_EN6_GuardD1Ev, symObjAddr: 0x4E2C, symBinAddr: 0x100005614, symSize: 0x60 }
  - { offset: 0x2E1DE, size: 0x8, addend: 0x0, symName: __ZNK9__gnu_cxx17__normal_iteratorIPKiSt6vectorIiSaIiEEE4baseEv, symObjAddr: 0x4DD4, symBinAddr: 0x1000055BC, symSize: 0x14 }
  - { offset: 0x2E230, size: 0x8, addend: 0x0, symName: __ZN9__gnu_cxx17__normal_iteratorIPKiSt6vectorIiSaIiEEEC1ERKS2_, symObjAddr: 0x4DAC, symBinAddr: 0x100005594, symSize: 0x28 }
  - { offset: 0x2E283, size: 0x8, addend: 0x0, symName: __ZNSt15__new_allocatorISt6vectorIiSaIiEEED2Ev, symObjAddr: 0x4D98, symBinAddr: 0x100005580, symSize: 0x14 }
  - { offset: 0x2E2C3, size: 0x8, addend: 0x0, symName: __ZNSt12_Vector_baseISt6vectorIiSaIiEESaIS2_EE17_Vector_impl_dataC2Ev, symObjAddr: 0x4D6C, symBinAddr: 0x100005554, symSize: 0x2C }
  - { offset: 0x2E2FF, size: 0x8, addend: 0x0, symName: __ZNSt6vectorIiSaIiEE18_M_fill_initializeEmRKi, symObjAddr: 0x4D14, symBinAddr: 0x1000054FC, symSize: 0x58 }
  - { offset: 0x2E347, size: 0x8, addend: 0x0, symName: __ZNSt6vectorIiSaIiEE17_S_check_init_lenEmRKS0_, symObjAddr: 0x4C90, symBinAddr: 0x100005478, symSize: 0x84 }
  - { offset: 0x2E3FD, size: 0x8, addend: 0x0, symName: __ZNSt6vectorIN5graphIiE4edgeESaIS2_EE12emplace_backIJS2_EEERS2_DpOT_, symObjAddr: 0x4BA8, symBinAddr: 0x100005390, symSize: 0xE8 }
  - { offset: 0x2E4AF, size: 0x8, addend: 0x0, symName: __ZSt4moveIRN5graphIiE4edgeEEONSt16remove_referenceIT_E4typeEOS5_, symObjAddr: 0x4B94, symBinAddr: 0x10000537C, symSize: 0x14 }
  - { offset: 0x2E4E5, size: 0x8, addend: 0x0, symName: __ZN9__gnu_cxx16__aligned_membufISt4pairIKiiEE6_M_ptrEv, symObjAddr: 0x4B78, symBinAddr: 0x100005360, symSize: 0x1C }
  - { offset: 0x2E50B, size: 0x8, addend: 0x0, symName: __ZSt8_DestroyIPSt6vectorIiSaIiEEEvT_S4_, symObjAddr: 0x4B50, symBinAddr: 0x100005338, symSize: 0x28 }
  - { offset: 0x2E551, size: 0x8, addend: 0x0, symName: __ZNSt12_Vector_baseISt6vectorIiSaIiEESaIS2_EE13_M_deallocateEPS2_m, symObjAddr: 0x4AF8, symBinAddr: 0x1000052E0, symSize: 0x58 }
  - { offset: 0x2E5CF, size: 0x8, addend: 0x0, symName: __ZSt8_DestroyIPN5graphIiE4edgeEEvT_S4_, symObjAddr: 0x4AD0, symBinAddr: 0x1000052B8, symSize: 0x28 }
  - { offset: 0x2E615, size: 0x8, addend: 0x0, symName: __ZNSt12_Vector_baseIN5graphIiE4edgeESaIS2_EE13_M_deallocateEPS2_m, symObjAddr: 0x4A78, symBinAddr: 0x100005260, symSize: 0x58 }
  - { offset: 0x2E697, size: 0x8, addend: 0x0, symName: __ZNSt6vectorIS_IiSaIiEESaIS1_EE6resizeEm, symObjAddr: 0x49BC, symBinAddr: 0x1000051A4, symSize: 0xBC }
  - { offset: 0x2E70C, size: 0x8, addend: 0x0, symName: __ZNSt12_Vector_baseIN5graphIiE4edgeESaIS2_EE12_Vector_implC1Ev, symObjAddr: 0x4984, symBinAddr: 0x10000516C, symSize: 0x38 }
  - { offset: 0x2E774, size: 0x8, addend: 0x0, symName: __ZSt22__final_insertion_sortIN9__gnu_cxx17__normal_iteratorIPiSt6vectorIiSaIiEEEENS0_5__ops15_Iter_less_iterEEvT_S9_T0_, symObjAddr: 0x48E8, symBinAddr: 0x1000050D0, symSize: 0x9C }
  - { offset: 0x2E7D2, size: 0x8, addend: 0x0, symName: __ZSt16__introsort_loopIN9__gnu_cxx17__normal_iteratorIPiSt6vectorIiSaIiEEEElNS0_5__ops15_Iter_less_iterEEvT_S9_T0_T1_, symObjAddr: 0x4830, symBinAddr: 0x100005018, symSize: 0xB8 }
  - { offset: 0x2E86E, size: 0x8, addend: 0x0, symName: __ZSt4__lgIlET_S0_, symObjAddr: 0x480C, symBinAddr: 0x100004FF4, symSize: 0x24 }
  - { offset: 0x2E8CD, size: 0x8, addend: 0x0, symName: __ZNSt23_Rb_tree_const_iteratorIiEC1ERKSt17_Rb_tree_iteratorIiE, symObjAddr: 0x47E4, symBinAddr: 0x100004FCC, symSize: 0x28 }
  - { offset: 0x2E8FF, size: 0x8, addend: 0x0, symName: __ZSt7forwardIRbEOT_RNSt16remove_referenceIS1_E4typeE, symObjAddr: 0x47D0, symBinAddr: 0x100004FB8, symSize: 0x14 }
  - { offset: 0x2E938, size: 0x8, addend: 0x0, symName: __ZSt7forwardIRSt17_Rb_tree_iteratorIiEEOT_RNSt16remove_referenceIS3_E4typeE, symObjAddr: 0x47BC, symBinAddr: 0x100004FA4, symSize: 0x14 }
  - { offset: 0x2E996, size: 0x8, addend: 0x0, symName: __ZNSt17_Rb_tree_iteratorIiEC1EPSt18_Rb_tree_node_base, symObjAddr: 0x4798, symBinAddr: 0x100004F80, symSize: 0x24 }
  - { offset: 0x2EA0D, size: 0x8, addend: 0x0, symName: __ZNSt4pairISt17_Rb_tree_iteratorIiEbEC1IS1_bLb1EEEOT_OT0_, symObjAddr: 0x474C, symBinAddr: 0x100004F34, symSize: 0x4C }
  - { offset: 0x2EA5E, size: 0x8, addend: 0x0, symName: __ZNSt8_Rb_treeIiiSt9_IdentityIiESt4lessIiESaIiEE10_M_insert_IRKiNS5_11_Alloc_nodeEEESt17_Rb_tree_iteratorIiEPSt18_Rb_tree_node_baseSD_OT_RT0_, symObjAddr: 0x465C, symBinAddr: 0x100004E44, symSize: 0xF0 }
  - { offset: 0x2EB29, size: 0x8, addend: 0x0, symName: __ZNSt8_Rb_treeIiiSt9_IdentityIiESt4lessIiESaIiEE11_Alloc_nodeC1ERS5_, symObjAddr: 0x4638, symBinAddr: 0x100004E20, symSize: 0x24 }
  - { offset: 0x2EB58, size: 0x8, addend: 0x0, symName: __ZNKSt9_IdentityIiEclERKi, symObjAddr: 0x4620, symBinAddr: 0x100004E08, symSize: 0x18 }
  - { offset: 0x2EB93, size: 0x8, addend: 0x0, symName: __ZNSt8_Rb_treeIiiSt9_IdentityIiESt4lessIiESaIiEE24_M_get_insert_unique_posERKi, symObjAddr: 0x44C8, symBinAddr: 0x100004CB0, symSize: 0x158 }
  - { offset: 0x2EC3F, size: 0x8, addend: 0x0, symName: __ZNSt17_Rb_tree_iteratorISt4pairIKiSt3setIiSt4lessIiESaIiEEEEC1EPSt18_Rb_tree_node_base, symObjAddr: 0x44A4, symBinAddr: 0x100004C8C, symSize: 0x24 }
  - { offset: 0x2EC6E, size: 0x8, addend: 0x0, symName: __ZNSt8_Rb_treeIiSt4pairIKiSt3setIiSt4lessIiESaIiEEESt10_Select1stIS7_ES4_SaIS7_EE10_Auto_node9_M_insertES0_IPSt18_Rb_tree_node_baseSE_E, symObjAddr: 0x4458, symBinAddr: 0x100004C40, symSize: 0x4C }
  - { offset: 0x2ECBA, size: 0x8, addend: 0x0, symName: __ZNKSt8_Rb_treeIiSt4pairIKiSt3setIiSt4lessIiESaIiEEESt10_Select1stIS7_ES4_SaIS7_EE10_Auto_node6_M_keyEv, symObjAddr: 0x4438, symBinAddr: 0x100004C20, symSize: 0x20 }
  - { offset: 0x2ECE4, size: 0x8, addend: 0x0, symName: __ZNSt8_Rb_treeIiSt4pairIKiSt3setIiSt4lessIiESaIiEEESt10_Select1stIS7_ES4_SaIS7_EE29_M_get_insert_hint_unique_posESt23_Rb_tree_const_iteratorIS7_ERS1_, symObjAddr: 0x4114, symBinAddr: 0x1000048FC, symSize: 0x324 }
  - { offset: 0x2EDB3, size: 0x8, addend: 0x0, symName: __ZNSt8_Rb_treeIiSt4pairIKiSt3setIiSt4lessIiESaIiEEESt10_Select1stIS7_ES4_SaIS7_EE10_Auto_nodeD1Ev, symObjAddr: 0x40D0, symBinAddr: 0x1000048B8, symSize: 0x44 }
  - { offset: 0x2EE2C, size: 0x8, addend: 0x0, symName: __ZNSt8_Rb_treeIiSt4pairIKiSt3setIiSt4lessIiESaIiEEESt10_Select1stIS7_ES4_SaIS7_EE10_Auto_nodeC1IJRKSt21piecewise_construct_tSt5tupleIJRS1_EESH_IJEEEEERSB_DpOT_, symObjAddr: 0x4054, symBinAddr: 0x10000483C, symSize: 0x7C }
  - { offset: 0x2EE92, size: 0x8, addend: 0x0, symName: __ZNSt13_Rb_tree_nodeISt4pairIKiSt3setIiSt4lessIiESaIiEEEE9_M_valptrEv, symObjAddr: 0x4034, symBinAddr: 0x10000481C, symSize: 0x20 }
  - { offset: 0x2EEBC, size: 0x8, addend: 0x0, symName: __ZNKSt8_Rb_treeIiSt4pairIKiSt3setIiSt4lessIiESaIiEEESt10_Select1stIS7_ES4_SaIS7_EE8key_compEv, symObjAddr: 0x401C, symBinAddr: 0x100004804, symSize: 0x18 }
  - { offset: 0x2EEE6, size: 0x8, addend: 0x0, symName: __ZNSt8_Rb_treeIiSt4pairIKiSt3setIiSt4lessIiESaIiEEESt10_Select1stIS7_ES4_SaIS7_EE3endEv, symObjAddr: 0x3FF4, symBinAddr: 0x1000047DC, symSize: 0x28 }
  - { offset: 0x2EF10, size: 0x8, addend: 0x0, symName: __ZNSt8_Rb_treeIiSt4pairIKiSt3setIiSt4lessIiESaIiEEESt10_Select1stIS7_ES4_SaIS7_EE11lower_boundERS1_, symObjAddr: 0x3FAC, symBinAddr: 0x100004794, symSize: 0x48 }
  - { offset: 0x2EF47, size: 0x8, addend: 0x0, symName: __ZNSt6vectorIiSaIiEE11_S_relocateEPiS2_S2_RS0_, symObjAddr: 0x3F78, symBinAddr: 0x100004760, symSize: 0x34 }
  - { offset: 0x2EFA4, size: 0x8, addend: 0x0, symName: __ZSt12__to_addressIiEPT_S1_, symObjAddr: 0x3F64, symBinAddr: 0x10000474C, symSize: 0x14 }
  - { offset: 0x2EFDA, size: 0x8, addend: 0x0, symName: __ZNSt12_Vector_baseIiSaIiEE11_M_allocateEm, symObjAddr: 0x3F14, symBinAddr: 0x1000046FC, symSize: 0x50 }
  - { offset: 0x2F03E, size: 0x8, addend: 0x0, symName: __ZN9__gnu_cxxmiIPiSt6vectorIiSaIiEEEENS_17__normal_iteratorIT_T0_E15difference_typeERKS8_SB_, symObjAddr: 0x3ED4, symBinAddr: 0x1000046BC, symSize: 0x40 }
  - { offset: 0x2F08F, size: 0x8, addend: 0x0, symName: __ZNKSt6vectorIiSaIiEE12_M_check_lenEmPKc, symObjAddr: 0x3E04, symBinAddr: 0x1000045EC, symSize: 0xD0 }
  - { offset: 0x2F131, size: 0x8, addend: 0x0, symName: __ZSt7forwardIRKiEOT_RNSt16remove_referenceIS2_E4typeE, symObjAddr: 0x3DF0, symBinAddr: 0x1000045D8, symSize: 0x14 }
  - { offset: 0x2F18F, size: 0x8, addend: 0x0, symName: __ZNSt17_Rb_tree_iteratorISt4pairIKiiEEC1EPSt18_Rb_tree_node_base, symObjAddr: 0x3DCC, symBinAddr: 0x1000045B4, symSize: 0x24 }
  - { offset: 0x2F1BE, size: 0x8, addend: 0x0, symName: __ZNSt8_Rb_treeIiSt4pairIKiiESt10_Select1stIS2_ESt4lessIiESaIS2_EE10_Auto_node9_M_insertES0_IPSt18_Rb_tree_node_baseSB_E, symObjAddr: 0x3D80, symBinAddr: 0x100004568, symSize: 0x4C }
  - { offset: 0x2F20A, size: 0x8, addend: 0x0, symName: __ZNKSt8_Rb_treeIiSt4pairIKiiESt10_Select1stIS2_ESt4lessIiESaIS2_EE10_Auto_node6_M_keyEv, symObjAddr: 0x3D60, symBinAddr: 0x100004548, symSize: 0x20 }
  - { offset: 0x2F234, size: 0x8, addend: 0x0, symName: __ZNSt8_Rb_treeIiSt4pairIKiiESt10_Select1stIS2_ESt4lessIiESaIS2_EE29_M_get_insert_hint_unique_posESt23_Rb_tree_const_iteratorIS2_ERS1_, symObjAddr: 0x3A3C, symBinAddr: 0x100004224, symSize: 0x324 }
  - { offset: 0x2F303, size: 0x8, addend: 0x0, symName: __ZNSt8_Rb_treeIiSt4pairIKiiESt10_Select1stIS2_ESt4lessIiESaIS2_EE10_Auto_nodeD1Ev, symObjAddr: 0x39F8, symBinAddr: 0x1000041E0, symSize: 0x44 }
  - { offset: 0x2F37C, size: 0x8, addend: 0x0, symName: __ZNSt8_Rb_treeIiSt4pairIKiiESt10_Select1stIS2_ESt4lessIiESaIS2_EE10_Auto_nodeC1IJRKSt21piecewise_construct_tSt5tupleIJRS1_EESE_IJEEEEERS8_DpOT_, symObjAddr: 0x397C, symBinAddr: 0x100004164, symSize: 0x7C }
  - { offset: 0x2F3E5, size: 0x8, addend: 0x0, symName: __ZSt7forwardISt5tupleIJEEEOT_RNSt16remove_referenceIS2_E4typeE, symObjAddr: 0x3968, symBinAddr: 0x100004150, symSize: 0x14 }
  - { offset: 0x2F41E, size: 0x8, addend: 0x0, symName: __ZSt7forwardISt5tupleIJRKiEEEOT_RNSt16remove_referenceIS4_E4typeE, symObjAddr: 0x3954, symBinAddr: 0x10000413C, symSize: 0x14 }
  - { offset: 0x2F457, size: 0x8, addend: 0x0, symName: __ZSt7forwardIRKSt21piecewise_construct_tEOT_RNSt16remove_referenceIS3_E4typeE, symObjAddr: 0x3940, symBinAddr: 0x100004128, symSize: 0x14 }
  - { offset: 0x2F4B5, size: 0x8, addend: 0x0, symName: __ZNSt11_Tuple_implILm0EJRKiEEC2ES1_, symObjAddr: 0x3918, symBinAddr: 0x100004100, symSize: 0x28 }
  - { offset: 0x2F4E4, size: 0x8, addend: 0x0, symName: __ZNKSt8_Rb_treeIiSt4pairIKiiESt10_Select1stIS2_ESt4lessIiESaIS2_EE8key_compEv, symObjAddr: 0x3900, symBinAddr: 0x1000040E8, symSize: 0x18 }
  - { offset: 0x2F50E, size: 0x8, addend: 0x0, symName: __ZNSt8_Rb_treeIiSt4pairIKiiESt10_Select1stIS2_ESt4lessIiESaIS2_EE11lower_boundERS1_, symObjAddr: 0x38B8, symBinAddr: 0x1000040A0, symSize: 0x48 }
  - { offset: 0x2F571, size: 0x8, addend: 0x0, symName: __ZNSt23_Rb_tree_const_iteratorISt4pairIKiiEEC1EPKSt18_Rb_tree_node_base, symObjAddr: 0x3894, symBinAddr: 0x10000407C, symSize: 0x24 }
  - { offset: 0x2F59C, size: 0x8, addend: 0x0, symName: __ZNSt8_Rb_treeIiSt4pairIKiiESt10_Select1stIS2_ESt4lessIiESaIS2_EE6_S_keyEPKSt18_Rb_tree_node_base, symObjAddr: 0x3878, symBinAddr: 0x100004060, symSize: 0x1C }
  - { offset: 0x2F5CA, size: 0x8, addend: 0x0, symName: __ZNKSt8_Rb_treeIiSt4pairIKiiESt10_Select1stIS2_ESt4lessIiESaIS2_EE14_M_lower_boundEPKSt13_Rb_tree_nodeIS2_EPKSt18_Rb_tree_node_baseRS1_, symObjAddr: 0x37DC, symBinAddr: 0x100003FC4, symSize: 0x9C }
  - { offset: 0x2F627, size: 0x8, addend: 0x0, symName: __ZNKSt8_Rb_treeIiSt4pairIKiiESt10_Select1stIS2_ESt4lessIiESaIS2_EE6_M_endEv, symObjAddr: 0x37C4, symBinAddr: 0x100003FAC, symSize: 0x18 }
  - { offset: 0x2F651, size: 0x8, addend: 0x0, symName: __ZNKSt8_Rb_treeIiSt4pairIKiiESt10_Select1stIS2_ESt4lessIiESaIS2_EE8_M_beginEv, symObjAddr: 0x37AC, symBinAddr: 0x100003F94, symSize: 0x18 }
  - { offset: 0x2F67B, size: 0x8, addend: 0x0, symName: __ZNKSt8_Rb_treeIiSt4pairIKiSt3setIiSt4lessIiESaIiEEESt10_Select1stIS7_ES4_SaIS7_EE9_M_mbeginEv, symObjAddr: 0x3794, symBinAddr: 0x100003F7C, symSize: 0x18 }
  - { offset: 0x2F6A5, size: 0x8, addend: 0x0, symName: __ZNSt8_Rb_treeIiSt4pairIKiSt3setIiSt4lessIiESaIiEEESt10_Select1stIS7_ES4_SaIS7_EE12_M_drop_nodeEPSt13_Rb_tree_nodeIS7_E, symObjAddr: 0x3760, symBinAddr: 0x100003F48, symSize: 0x34 }
  - { offset: 0x2F6DC, size: 0x8, addend: 0x0, symName: __ZNSt8_Rb_treeIiSt4pairIKiSt3setIiSt4lessIiESaIiEEESt10_Select1stIS7_ES4_SaIS7_EE7_S_leftEPSt18_Rb_tree_node_base, symObjAddr: 0x3748, symBinAddr: 0x100003F30, symSize: 0x18 }
  - { offset: 0x2F706, size: 0x8, addend: 0x0, symName: __ZNSt8_Rb_treeIiSt4pairIKiSt3setIiSt4lessIiESaIiEEESt10_Select1stIS7_ES4_SaIS7_EE8_S_rightEPSt18_Rb_tree_node_base, symObjAddr: 0x3730, symBinAddr: 0x100003F18, symSize: 0x18 }
  - { offset: 0x2F746, size: 0x8, addend: 0x0, symName: __ZSt8_DestroyIPiEvT_S1_, symObjAddr: 0x3708, symBinAddr: 0x100003EF0, symSize: 0x28 }
  - { offset: 0x2F7D4, size: 0x8, addend: 0x0, symName: __ZNKSt8_Rb_treeIiSt4pairIKiiESt10_Select1stIS2_ESt4lessIiESaIS2_EE9_M_mbeginEv, symObjAddr: 0x36F0, symBinAddr: 0x100003ED8, symSize: 0x18 }
  - { offset: 0x2F7FE, size: 0x8, addend: 0x0, symName: __ZNSt8_Rb_treeIiSt4pairIKiiESt10_Select1stIS2_ESt4lessIiESaIS2_EE12_M_drop_nodeEPSt13_Rb_tree_nodeIS2_E, symObjAddr: 0x36BC, symBinAddr: 0x100003EA4, symSize: 0x34 }
  - { offset: 0x2F835, size: 0x8, addend: 0x0, symName: __ZNSt8_Rb_treeIiSt4pairIKiiESt10_Select1stIS2_ESt4lessIiESaIS2_EE7_S_leftEPSt18_Rb_tree_node_base, symObjAddr: 0x36A4, symBinAddr: 0x100003E8C, symSize: 0x18 }
  - { offset: 0x2F85F, size: 0x8, addend: 0x0, symName: __ZNSt8_Rb_treeIiSt4pairIKiiESt10_Select1stIS2_ESt4lessIiESaIS2_EE8_S_rightEPSt18_Rb_tree_node_base, symObjAddr: 0x368C, symBinAddr: 0x100003E74, symSize: 0x18 }
  - { offset: 0x2F89F, size: 0x8, addend: 0x0, symName: __ZSt11__bit_widthImEiT_, symObjAddr: 0x365C, symBinAddr: 0x100003E44, symSize: 0x30 }
  - { offset: 0x2F8EE, size: 0x8, addend: 0x0, symName: __ZNSt9_Any_data9_M_accessIPKSt9type_infoEERT_v, symObjAddr: 0x3640, symBinAddr: 0x100003E28, symSize: 0x1C }
  - { offset: 0x2F921, size: 0x8, addend: 0x0, symName: __ZNKSt8_Rb_treeIiSt4pairIKiSt3setIiSt4lessIiESaIiEEESt10_Select1stIS7_ES4_SaIS7_EE4sizeEv, symObjAddr: 0x3628, symBinAddr: 0x100003E10, symSize: 0x18 }
  - { offset: 0x2F94B, size: 0x8, addend: 0x0, symName: __ZNKSt8_Rb_treeIiSt4pairIKiiESt10_Select1stIS2_ESt4lessIiESaIS2_EE4sizeEv, symObjAddr: 0x3610, symBinAddr: 0x100003DF8, symSize: 0x18 }
  - { offset: 0x2F978, size: 0x8, addend: 0x0, symName: __ZSteqRKSt23_Rb_tree_const_iteratorIiES2_, symObjAddr: 0x35E0, symBinAddr: 0x100003DC8, symSize: 0x30 }
  - { offset: 0x2F9B7, size: 0x8, addend: 0x0, symName: __ZNKSt8_Rb_treeIiiSt9_IdentityIiESt4lessIiESaIiEE4findERKi, symObjAddr: 0x3538, symBinAddr: 0x100003D20, symSize: 0xA8 }
  - { offset: 0x2FA03, size: 0x8, addend: 0x0, symName: __ZNKSt13_Rb_tree_nodeIiE9_M_valptrEv, symObjAddr: 0x3518, symBinAddr: 0x100003D00, symSize: 0x20 }
  - { offset: 0x2FA2D, size: 0x8, addend: 0x0, symName: __ZNKSt8_Rb_treeIiiSt9_IdentityIiESt4lessIiESaIiEE3endEv, symObjAddr: 0x34F0, symBinAddr: 0x100003CD8, symSize: 0x28 }
  - { offset: 0x2FA57, size: 0x8, addend: 0x0, symName: __ZNKSt8_Rb_treeIiiSt9_IdentityIiESt4lessIiESaIiEE5beginEv, symObjAddr: 0x34C8, symBinAddr: 0x100003CB0, symSize: 0x28 }
  - { offset: 0x2FA81, size: 0x8, addend: 0x0, symName: __ZNK9__gnu_cxx17__normal_iteratorIPiSt6vectorIiSaIiEEE4baseEv, symObjAddr: 0x34B4, symBinAddr: 0x100003C9C, symSize: 0x14 }
  - { offset: 0x2FAAB, size: 0x8, addend: 0x0, symName: __ZNSt8_Rb_treeIiiSt9_IdentityIiESt4lessIiESaIiEE8_M_beginEv, symObjAddr: 0x3498, symBinAddr: 0x100003C80, symSize: 0x1C }
  - { offset: 0x2FAD5, size: 0x8, addend: 0x0, symName: __ZNSt8_Rb_treeIiiSt9_IdentityIiESt4lessIiESaIiEE8_M_eraseEPSt13_Rb_tree_nodeIiE, symObjAddr: 0x3434, symBinAddr: 0x100003C1C, symSize: 0x64 }
  - { offset: 0x2FB58, size: 0x8, addend: 0x0, symName: __ZNSt15__new_allocatorISt13_Rb_tree_nodeIiEED2Ev, symObjAddr: 0x3420, symBinAddr: 0x100003C08, symSize: 0x14 }
  - { offset: 0x2FBBB, size: 0x8, addend: 0x0, symName: __ZNSt12_Vector_baseIiSaIiEE12_Vector_implC1EOS2_, symObjAddr: 0x33B4, symBinAddr: 0x100003B9C, symSize: 0x6C }
  - { offset: 0x2FC42, size: 0x8, addend: 0x0, symName: __ZNKSt6vectorIiSaIiEEixEm, symObjAddr: 0x338C, symBinAddr: 0x100003B74, symSize: 0x28 }
  - { offset: 0x2FC79, size: 0x8, addend: 0x0, symName: __ZSt22__uninitialized_copy_aIN9__gnu_cxx17__normal_iteratorIPKiSt6vectorIiSaIiEEEEPiiET0_T_SA_S9_RSaIT1_E, symObjAddr: 0x335C, symBinAddr: 0x100003B44, symSize: 0x30 }
  - { offset: 0x2FD23, size: 0x8, addend: 0x0, symName: __ZNSt12_Vector_baseIiSaIiEEC2EmRKS0_, symObjAddr: 0x3308, symBinAddr: 0x100003AF0, symSize: 0x54 }
  - { offset: 0x2FD70, size: 0x8, addend: 0x0, symName: __ZNKSt12_Vector_baseIiSaIiEE19_M_get_Tp_allocatorEv, symObjAddr: 0x32F4, symBinAddr: 0x100003ADC, symSize: 0x14 }
  - { offset: 0x2FD9A, size: 0x8, addend: 0x0, symName: __ZNK9__gnu_cxx17__normal_iteratorIPSt6vectorIiSaIiEES1_IS3_SaIS3_EEE4baseEv, symObjAddr: 0x32E0, symBinAddr: 0x100003AC8, symSize: 0x14 }
  - { offset: 0x2FDEC, size: 0x8, addend: 0x0, symName: __ZN9__gnu_cxx17__normal_iteratorIPSt6vectorIiSaIiEES1_IS3_SaIS3_EEEC1ERKS4_, symObjAddr: 0x32B8, symBinAddr: 0x100003AA0, symSize: 0x28 }
  - { offset: 0x2FE53, size: 0x8, addend: 0x0, symName: __ZNSt8functionIFviiEEC1IZ11find_cyclesIiESt6vectorIS4_IiSaIiEESaIS6_EERK5graphIT_EiiEUliiE_vEEOSA_, symObjAddr: 0x3214, symBinAddr: 0x1000039FC, symSize: 0xA4 }
  - { offset: 0x2FEAC, size: 0x8, addend: 0x0, symName: __ZNSt6vectorIiSaIiEE8pop_backEv, symObjAddr: 0x31C0, symBinAddr: 0x1000039A8, symSize: 0x54 }
  - { offset: 0x2FF30, size: 0x8, addend: 0x0, symName: __ZNKSt8functionIFviiEEclEii, symObjAddr: 0x3148, symBinAddr: 0x100003930, symSize: 0x78 }
  - { offset: 0x2FF7C, size: 0x8, addend: 0x0, symName: __ZNSt6vectorIS_IiSaIiEESaIS1_EE9push_backERKS1_, symObjAddr: 0x304C, symBinAddr: 0x100003834, symSize: 0xFC }
  - { offset: 0x3001B, size: 0x8, addend: 0x0, symName: __ZNKSt6vectorIN5graphIiE4edgeESaIS2_EEixEm, symObjAddr: 0x3018, symBinAddr: 0x100003800, symSize: 0x34 }
  - { offset: 0x30056, size: 0x8, addend: 0x0, symName: __ZNK9__gnu_cxx17__normal_iteratorIPKiSt6vectorIiSaIiEEEdeEv, symObjAddr: 0x3000, symBinAddr: 0x1000037E8, symSize: 0x18 }
  - { offset: 0x30080, size: 0x8, addend: 0x0, symName: __ZN9__gnu_cxx17__normal_iteratorIPKiSt6vectorIiSaIiEEEppEv, symObjAddr: 0x2FD8, symBinAddr: 0x1000037C0, symSize: 0x28 }
  - { offset: 0x300AD, size: 0x8, addend: 0x0, symName: __ZN9__gnu_cxxneIPKiSt6vectorIiSaIiEEEEbRKNS_17__normal_iteratorIT_T0_EESB_, symObjAddr: 0x2F94, symBinAddr: 0x10000377C, symSize: 0x44 }
  - { offset: 0x300FE, size: 0x8, addend: 0x0, symName: __ZNKSt6vectorIiSaIiEE3endEv, symObjAddr: 0x2F6C, symBinAddr: 0x100003754, symSize: 0x28 }
  - { offset: 0x30128, size: 0x8, addend: 0x0, symName: __ZNKSt6vectorIiSaIiEE5beginEv, symObjAddr: 0x2F48, symBinAddr: 0x100003730, symSize: 0x24 }
  - { offset: 0x30152, size: 0x8, addend: 0x0, symName: __ZNKSt6vectorIS_IiSaIiEESaIS1_EEixEm, symObjAddr: 0x2F14, symBinAddr: 0x1000036FC, symSize: 0x34 }
  - { offset: 0x301C7, size: 0x8, addend: 0x0, symName: __ZNSt12_Vector_baseISt6vectorIiSaIiEESaIS2_EE12_Vector_implC1Ev, symObjAddr: 0x2EDC, symBinAddr: 0x1000036C4, symSize: 0x38 }
  - { offset: 0x30277, size: 0x8, addend: 0x0, symName: __ZNSt6vectorIiSaIiEEC1EmRKiRKS0_, symObjAddr: 0x2E6C, symBinAddr: 0x100003654, symSize: 0x70 }
  - { offset: 0x302B8, size: 0x8, addend: 0x0, symName: __ZNSt6vectorIN5graphIiE4edgeESaIS2_EE9push_backEOS2_, symObjAddr: 0x2E3C, symBinAddr: 0x100003624, symSize: 0x30 }
  - { offset: 0x302F3, size: 0x8, addend: 0x0, symName: __ZNSt6vectorIS_IiSaIiEESaIS1_EEixEm, symObjAddr: 0x2E08, symBinAddr: 0x1000035F0, symSize: 0x34 }
  - { offset: 0x3032E, size: 0x8, addend: 0x0, symName: __ZNKSt6vectorIN5graphIiE4edgeESaIS2_EE4sizeEv, symObjAddr: 0x2DD4, symBinAddr: 0x1000035BC, symSize: 0x34 }
  - { offset: 0x30358, size: 0x8, addend: 0x0, symName: __ZNSt13_Rb_tree_nodeISt4pairIKiiEE9_M_valptrEv, symObjAddr: 0x2DB4, symBinAddr: 0x10000359C, symSize: 0x20 }
  - { offset: 0x30382, size: 0x8, addend: 0x0, symName: __ZNSt8_Rb_treeIiSt4pairIKiiESt10_Select1stIS2_ESt4lessIiESaIS2_EE3endEv, symObjAddr: 0x2D8C, symBinAddr: 0x100003574, symSize: 0x28 }
  - { offset: 0x303AC, size: 0x8, addend: 0x0, symName: __ZNSt8_Rb_treeIiSt4pairIKiiESt10_Select1stIS2_ESt4lessIiESaIS2_EE5beginEv, symObjAddr: 0x2D64, symBinAddr: 0x10000354C, symSize: 0x28 }
  - { offset: 0x30411, size: 0x8, addend: 0x0, symName: __ZNSt12_Vector_baseISt6vectorIiSaIiEESaIS2_EE19_M_get_Tp_allocatorEv, symObjAddr: 0x2D50, symBinAddr: 0x100003538, symSize: 0x14 }
  - { offset: 0x3045F, size: 0x8, addend: 0x0, symName: __ZNSt12_Vector_baseISt6vectorIiSaIiEESaIS2_EED2Ev, symObjAddr: 0x2CF4, symBinAddr: 0x1000034DC, symSize: 0x5C }
  - { offset: 0x304C0, size: 0x8, addend: 0x0, symName: __ZNSt12_Vector_baseIN5graphIiE4edgeESaIS2_EE19_M_get_Tp_allocatorEv, symObjAddr: 0x2CE0, symBinAddr: 0x1000034C8, symSize: 0x14 }
  - { offset: 0x3050E, size: 0x8, addend: 0x0, symName: __ZNSt12_Vector_baseIN5graphIiE4edgeESaIS2_EED2Ev, symObjAddr: 0x2C84, symBinAddr: 0x10000346C, symSize: 0x5C }
  - { offset: 0x3055B, size: 0x8, addend: 0x0, symName: __ZN5graphIiEC2Ei, symObjAddr: 0x2BE4, symBinAddr: 0x1000033CC, symSize: 0xA0 }
  - { offset: 0x305A4, size: 0x8, addend: 0x0, symName: __ZNSt6vectorIN5graphIiE4edgeESaIS2_EEC1Ev, symObjAddr: 0x2BC4, symBinAddr: 0x1000033AC, symSize: 0x20 }
  - { offset: 0x305E4, size: 0x8, addend: 0x0, symName: __ZNSt12_Vector_baseIN5graphIiE4edgeESaIS2_EEC2Ev, symObjAddr: 0x2BA4, symBinAddr: 0x10000338C, symSize: 0x20 }
  - { offset: 0x30631, size: 0x8, addend: 0x0, symName: __ZNSt12_Vector_baseIN5graphIiE4edgeESaIS2_EE12_Vector_implD1Ev, symObjAddr: 0x2B78, symBinAddr: 0x100003360, symSize: 0x2C }
  - { offset: 0x30676, size: 0x8, addend: 0x0, symName: __ZSt6__sortIN9__gnu_cxx17__normal_iteratorIPiSt6vectorIiSaIiEEEENS0_5__ops15_Iter_less_iterEEvT_S9_T0_, symObjAddr: 0x2B00, symBinAddr: 0x1000032E8, symSize: 0x78 }
  - { offset: 0x30700, size: 0x8, addend: 0x0, symName: __ZN9__gnu_cxx17__normal_iteratorIPiSt6vectorIiSaIiEEEC1ERKS1_, symObjAddr: 0x2AD8, symBinAddr: 0x1000032C0, symSize: 0x28 }
  - { offset: 0x30777, size: 0x8, addend: 0x0, symName: __ZNSt4pairISt23_Rb_tree_const_iteratorIiEbEC1IRSt17_Rb_tree_iteratorIiERbLb1EEEOT_OT0_, symObjAddr: 0x2A84, symBinAddr: 0x10000326C, symSize: 0x54 }
  - { offset: 0x307C1, size: 0x8, addend: 0x0, symName: __ZNSt8_Rb_treeIiiSt9_IdentityIiESt4lessIiESaIiEE16_M_insert_uniqueIRKiEESt4pairISt17_Rb_tree_iteratorIiEbEOT_, symObjAddr: 0x29B8, symBinAddr: 0x1000031A0, symSize: 0xCC }
  - { offset: 0x3083E, size: 0x8, addend: 0x0, symName: __ZNSt8_Rb_treeIiSt4pairIKiSt3setIiSt4lessIiESaIiEEESt10_Select1stIS7_ES4_SaIS7_EE22_M_emplace_hint_uniqueIJRKSt21piecewise_construct_tSt5tupleIJRS1_EESG_IJEEEEESt17_Rb_tree_iteratorIS7_ESt23_Rb_tree_const_iteratorIS7_EDpOT_, symObjAddr: 0x28E0, symBinAddr: 0x1000030C8, symSize: 0xD8 }
  - { offset: 0x308FD, size: 0x8, addend: 0x0, symName: __ZNSt23_Rb_tree_const_iteratorISt4pairIKiSt3setIiSt4lessIiESaIiEEEEC1ERKSt17_Rb_tree_iteratorIS7_E, symObjAddr: 0x28B8, symBinAddr: 0x1000030A0, symSize: 0x28 }
  - { offset: 0x3092C, size: 0x8, addend: 0x0, symName: __ZNKSt17_Rb_tree_iteratorISt4pairIKiSt3setIiSt4lessIiESaIiEEEEdeEv, symObjAddr: 0x2898, symBinAddr: 0x100003080, symSize: 0x20 }
  - { offset: 0x30956, size: 0x8, addend: 0x0, symName: __ZNKSt3mapIiSt3setIiSt4lessIiESaIiEES2_SaISt4pairIKiS4_EEE8key_compEv, symObjAddr: 0x286C, symBinAddr: 0x100003054, symSize: 0x2C }
  - { offset: 0x30983, size: 0x8, addend: 0x0, symName: __ZSteqRKSt17_Rb_tree_iteratorISt4pairIKiSt3setIiSt4lessIiESaIiEEEESA_, symObjAddr: 0x283C, symBinAddr: 0x100003024, symSize: 0x30 }
  - { offset: 0x309C2, size: 0x8, addend: 0x0, symName: __ZNSt3mapIiSt3setIiSt4lessIiESaIiEES2_SaISt4pairIKiS4_EEE3endEv, symObjAddr: 0x2820, symBinAddr: 0x100003008, symSize: 0x1C }
  - { offset: 0x309EC, size: 0x8, addend: 0x0, symName: __ZNSt3mapIiSt3setIiSt4lessIiESaIiEES2_SaISt4pairIKiS4_EEE11lower_boundERS6_, symObjAddr: 0x27FC, symBinAddr: 0x100002FE4, symSize: 0x24 }
  - { offset: 0x30A27, size: 0x8, addend: 0x0, symName: __ZNSt6vectorIiSaIiEE17_M_realloc_appendIJRKiEEEvDpOT_, symObjAddr: 0x2640, symBinAddr: 0x100002E28, symSize: 0x1BC }
  - { offset: 0x30BAC, size: 0x8, addend: 0x0, symName: __ZZNSt6vectorIiSaIiEE17_M_realloc_appendIJRKiEEEvDpOT_EN6_GuardC1EPimRS0_, symObjAddr: 0x259C, symBinAddr: 0x100002D84, symSize: 0x44 }
  - { offset: 0x30BF1, size: 0x8, addend: 0x0, symName: __ZZNSt6vectorIiSaIiEE17_M_realloc_appendIJRKiEEEvDpOT_EN6_GuardD1Ev, symObjAddr: 0x25E0, symBinAddr: 0x100002DC8, symSize: 0x60 }
  - { offset: 0x30D28, size: 0x8, addend: 0x0, symName: __ZNSt8_Rb_treeIiSt4pairIKiiESt10_Select1stIS2_ESt4lessIiESaIS2_EE22_M_emplace_hint_uniqueIJRKSt21piecewise_construct_tSt5tupleIJRS1_EESD_IJEEEEESt17_Rb_tree_iteratorIS2_ESt23_Rb_tree_const_iteratorIS2_EDpOT_, symObjAddr: 0x24C4, symBinAddr: 0x100002CAC, symSize: 0xD8 }
  - { offset: 0x30DE7, size: 0x8, addend: 0x0, symName: __ZNSt23_Rb_tree_const_iteratorISt4pairIKiiEEC1ERKSt17_Rb_tree_iteratorIS2_E, symObjAddr: 0x249C, symBinAddr: 0x100002C84, symSize: 0x28 }
  - { offset: 0x30E48, size: 0x8, addend: 0x0, symName: __ZNSt5tupleIJRKiEEC1ILb1ELb1EEES1_, symObjAddr: 0x2474, symBinAddr: 0x100002C5C, symSize: 0x28 }
  - { offset: 0x30E81, size: 0x8, addend: 0x0, symName: __ZNKSt4lessIiEclERKiS2_, symObjAddr: 0x2440, symBinAddr: 0x100002C28, symSize: 0x34 }
  - { offset: 0x30ECD, size: 0x8, addend: 0x0, symName: __ZNKSt3mapIiiSt4lessIiESaISt4pairIKiiEEE8key_compEv, symObjAddr: 0x2414, symBinAddr: 0x100002BFC, symSize: 0x2C }
  - { offset: 0x30EFA, size: 0x8, addend: 0x0, symName: __ZSteqRKSt17_Rb_tree_iteratorISt4pairIKiiEES5_, symObjAddr: 0x23E4, symBinAddr: 0x100002BCC, symSize: 0x30 }
  - { offset: 0x30F39, size: 0x8, addend: 0x0, symName: __ZNSt3mapIiiSt4lessIiESaISt4pairIKiiEEE11lower_boundERS3_, symObjAddr: 0x23C0, symBinAddr: 0x100002BA8, symSize: 0x24 }
  - { offset: 0x30F77, size: 0x8, addend: 0x0, symName: __ZSteqRKSt23_Rb_tree_const_iteratorISt4pairIKiiEES5_, symObjAddr: 0x2390, symBinAddr: 0x100002B78, symSize: 0x30 }
  - { offset: 0x30FB6, size: 0x8, addend: 0x0, symName: __ZNKSt8_Rb_treeIiSt4pairIKiiESt10_Select1stIS2_ESt4lessIiESaIS2_EE3endEv, symObjAddr: 0x2368, symBinAddr: 0x100002B50, symSize: 0x28 }
  - { offset: 0x30FE0, size: 0x8, addend: 0x0, symName: __ZNKSt8_Rb_treeIiSt4pairIKiiESt10_Select1stIS2_ESt4lessIiESaIS2_EE4findERS1_, symObjAddr: 0x22C0, symBinAddr: 0x100002AA8, symSize: 0xA8 }
  - { offset: 0x3102C, size: 0x8, addend: 0x0, symName: __ZNSt8_Rb_treeIiSt4pairIKiSt3setIiSt4lessIiESaIiEEESt10_Select1stIS7_ES4_SaIS7_EE8_M_beginEv, symObjAddr: 0x22A4, symBinAddr: 0x100002A8C, symSize: 0x1C }
  - { offset: 0x31056, size: 0x8, addend: 0x0, symName: __ZNSt8_Rb_treeIiSt4pairIKiSt3setIiSt4lessIiESaIiEEESt10_Select1stIS7_ES4_SaIS7_EE8_M_eraseEPSt13_Rb_tree_nodeIS7_E, symObjAddr: 0x2240, symBinAddr: 0x100002A28, symSize: 0x64 }
  - { offset: 0x310D9, size: 0x8, addend: 0x0, symName: __ZNSt15__new_allocatorISt13_Rb_tree_nodeISt4pairIKiSt3setIiSt4lessIiESaIiEEEEED2Ev, symObjAddr: 0x222C, symBinAddr: 0x100002A14, symSize: 0x14 }
  - { offset: 0x31150, size: 0x8, addend: 0x0, symName: __ZNSt12_Vector_baseIiSaIiEE19_M_get_Tp_allocatorEv, symObjAddr: 0x2218, symBinAddr: 0x100002A00, symSize: 0x14 }
  - { offset: 0x3117A, size: 0x8, addend: 0x0, symName: __ZNSt12_Vector_baseIiSaIiEE13_M_deallocateEPim, symObjAddr: 0x21C0, symBinAddr: 0x1000029A8, symSize: 0x58 }
  - { offset: 0x31220, size: 0x8, addend: 0x0, symName: __ZNSt15__new_allocatorIiED2Ev, symObjAddr: 0x21AC, symBinAddr: 0x100002994, symSize: 0x14 }
  - { offset: 0x31260, size: 0x8, addend: 0x0, symName: __ZNSt12_Vector_baseIiSaIiEE17_Vector_impl_dataC2Ev, symObjAddr: 0x2180, symBinAddr: 0x100002968, symSize: 0x2C }
  - { offset: 0x3129C, size: 0x8, addend: 0x0, symName: __ZNSt8_Rb_treeIiSt4pairIKiiESt10_Select1stIS2_ESt4lessIiESaIS2_EE8_M_beginEv, symObjAddr: 0x2164, symBinAddr: 0x10000294C, symSize: 0x1C }
  - { offset: 0x312C6, size: 0x8, addend: 0x0, symName: __ZNSt8_Rb_treeIiSt4pairIKiiESt10_Select1stIS2_ESt4lessIiESaIS2_EE8_M_eraseEPSt13_Rb_tree_nodeIS2_E, symObjAddr: 0x2100, symBinAddr: 0x1000028E8, symSize: 0x64 }
  - { offset: 0x31349, size: 0x8, addend: 0x0, symName: __ZNSt15__new_allocatorISt13_Rb_tree_nodeISt4pairIKiiEEED2Ev, symObjAddr: 0x20EC, symBinAddr: 0x1000028D4, symSize: 0x14 }
  - { offset: 0x31389, size: 0x8, addend: 0x0, symName: __ZNSt20_Rb_tree_key_compareISt4lessIiEEC2Ev, symObjAddr: 0x20D8, symBinAddr: 0x1000028C0, symSize: 0x14 }
  - { offset: 0x313C8, size: 0x8, addend: 0x0, symName: __ZSt7forwardIbEOT_RNSt16remove_referenceIS0_E4typeE, symObjAddr: 0x20C4, symBinAddr: 0x1000028AC, symSize: 0x14 }
  - { offset: 0x313FE, size: 0x8, addend: 0x0, symName: __ZNKSt6vectorIS_IiSaIiEESaIS1_EE4sizeEv, symObjAddr: 0x2090, symBinAddr: 0x100002878, symSize: 0x34 }
  - { offset: 0x31428, size: 0x8, addend: 0x0, symName: __ZNKSt3mapIiSt3setIiSt4lessIiESaIiEES2_SaISt4pairIKiS4_EEE4sizeEv, symObjAddr: 0x2074, symBinAddr: 0x10000285C, symSize: 0x1C }
  - { offset: 0x31452, size: 0x8, addend: 0x0, symName: __ZNKSt3mapIiiSt4lessIiESaISt4pairIKiiEEE4sizeEv, symObjAddr: 0x2058, symBinAddr: 0x100002840, symSize: 0x1C }
  - { offset: 0x3147C, size: 0x8, addend: 0x0, symName: __ZNKSt3setIiSt4lessIiESaIiEE5countERKi, symObjAddr: 0x2000, symBinAddr: 0x1000027E8, symSize: 0x58 }
  - { offset: 0x314B7, size: 0x8, addend: 0x0, symName: __ZNKSt23_Rb_tree_const_iteratorIiEdeEv, symObjAddr: 0x1FE0, symBinAddr: 0x1000027C8, symSize: 0x20 }
  - { offset: 0x314E1, size: 0x8, addend: 0x0, symName: __ZNSt23_Rb_tree_const_iteratorIiEppEv, symObjAddr: 0x1FB0, symBinAddr: 0x100002798, symSize: 0x30 }
  - { offset: 0x31507, size: 0x8, addend: 0x0, symName: __ZStneRKSt23_Rb_tree_const_iteratorIiES2_, symObjAddr: 0x1F80, symBinAddr: 0x100002768, symSize: 0x30 }
  - { offset: 0x31546, size: 0x8, addend: 0x0, symName: __ZNKSt3setIiSt4lessIiESaIiEE3endEv, symObjAddr: 0x1F64, symBinAddr: 0x10000274C, symSize: 0x1C }
  - { offset: 0x31570, size: 0x8, addend: 0x0, symName: __ZNKSt3setIiSt4lessIiESaIiEE5beginEv, symObjAddr: 0x1F48, symBinAddr: 0x100002730, symSize: 0x1C }
  - { offset: 0x3159A, size: 0x8, addend: 0x0, symName: __ZNK9__gnu_cxx17__normal_iteratorIPiSt6vectorIiSaIiEEEdeEv, symObjAddr: 0x1F30, symBinAddr: 0x100002718, symSize: 0x18 }
  - { offset: 0x315C4, size: 0x8, addend: 0x0, symName: __ZN9__gnu_cxx17__normal_iteratorIPiSt6vectorIiSaIiEEEppEv, symObjAddr: 0x1F08, symBinAddr: 0x1000026F0, symSize: 0x28 }
  - { offset: 0x315EA, size: 0x8, addend: 0x0, symName: __ZN9__gnu_cxxneIPiSt6vectorIiSaIiEEEEbRKNS_17__normal_iteratorIT_T0_EESA_, symObjAddr: 0x1EC4, symBinAddr: 0x1000026AC, symSize: 0x44 }
  - { offset: 0x3165F, size: 0x8, addend: 0x0, symName: __ZNSt8_Rb_treeIiiSt9_IdentityIiESt4lessIiESaIiEED1Ev, symObjAddr: 0x1E90, symBinAddr: 0x100002678, symSize: 0x34 }
  - { offset: 0x316BF, size: 0x8, addend: 0x0, symName: __ZNSt8_Rb_treeIiiSt9_IdentityIiESt4lessIiESaIiEE13_Rb_tree_implIS3_Lb1EEC1Ev, symObjAddr: 0x1E4C, symBinAddr: 0x100002634, symSize: 0x44 }
  - { offset: 0x31733, size: 0x8, addend: 0x0, symName: __Z17edges_to_verticesIiESt6vectorIiSaIiEERK5graphIT_ERKS2_, symObjAddr: 0x1C6C, symBinAddr: 0x100002454, symSize: 0x1E0 }
  - { offset: 0x3181E, size: 0x8, addend: 0x0, symName: __ZNSt6vectorIiSaIiEEC1EOS1_, symObjAddr: 0x1C44, symBinAddr: 0x10000242C, symSize: 0x28 }
  - { offset: 0x3186C, size: 0x8, addend: 0x0, symName: __ZNSt12_Vector_baseIiSaIiEEC2EOS1_, symObjAddr: 0x1C1C, symBinAddr: 0x100002404, symSize: 0x28 }
  - { offset: 0x318C3, size: 0x8, addend: 0x0, symName: __ZNSt6vectorIiSaIiEEC1ERKS1_, symObjAddr: 0x1B08, symBinAddr: 0x1000022F0, symSize: 0x114 }
  - { offset: 0x319D6, size: 0x8, addend: 0x0, symName: __ZNK9__gnu_cxx17__normal_iteratorIPSt6vectorIiSaIiEES1_IS3_SaIS3_EEEdeEv, symObjAddr: 0x1AF0, symBinAddr: 0x1000022D8, symSize: 0x18 }
  - { offset: 0x31A00, size: 0x8, addend: 0x0, symName: __ZN9__gnu_cxx17__normal_iteratorIPSt6vectorIiSaIiEES1_IS3_SaIS3_EEEppEv, symObjAddr: 0x1AC8, symBinAddr: 0x1000022B0, symSize: 0x28 }
  - { offset: 0x31A26, size: 0x8, addend: 0x0, symName: __ZN9__gnu_cxxneIPSt6vectorIiSaIiEES1_IS3_SaIS3_EEEEbRKNS_17__normal_iteratorIT_T0_EESC_, symObjAddr: 0x1A84, symBinAddr: 0x10000226C, symSize: 0x44 }
  - { offset: 0x31A77, size: 0x8, addend: 0x0, symName: __ZNSt6vectorIS_IiSaIiEESaIS1_EE3endEv, symObjAddr: 0x1A5C, symBinAddr: 0x100002244, symSize: 0x28 }
  - { offset: 0x31AA1, size: 0x8, addend: 0x0, symName: __ZNSt6vectorIS_IiSaIiEESaIS1_EE5beginEv, symObjAddr: 0x1A38, symBinAddr: 0x100002220, symSize: 0x24 }
  - { offset: 0x31AD2, size: 0x8, addend: 0x0, symName: __Z11find_cyclesIiESt6vectorIS0_IiSaIiEESaIS2_EERK5graphIT_Eii, symObjAddr: 0x18A4, symBinAddr: 0x10000208C, symSize: 0x194 }
  - { offset: 0x31C08, size: 0x8, addend: 0x0, symName: __ZZ11find_cyclesIiESt6vectorIS0_IiSaIiEESaIS2_EERK5graphIT_EiiENKUliiE_clEii, symObjAddr: 0x14DC, symBinAddr: 0x100001CC4, symSize: 0x3A8 }
  - { offset: 0x31ED9, size: 0x8, addend: 0x0, symName: __ZNSt8functionIFviiEED1Ev, symObjAddr: 0x1884, symBinAddr: 0x10000206C, symSize: 0x20 }
  - { offset: 0x31F19, size: 0x8, addend: 0x0, symName: __ZNSt6vectorIS_IiSaIiEESaIS1_EEC1Ev, symObjAddr: 0x14BC, symBinAddr: 0x100001CA4, symSize: 0x20 }
  - { offset: 0x31F59, size: 0x8, addend: 0x0, symName: __ZNSt12_Vector_baseISt6vectorIiSaIiEESaIS2_EEC2Ev, symObjAddr: 0x149C, symBinAddr: 0x100001C84, symSize: 0x20 }
  - { offset: 0x31FA6, size: 0x8, addend: 0x0, symName: __ZNSt12_Vector_baseISt6vectorIiSaIiEESaIS2_EE12_Vector_implD1Ev, symObjAddr: 0x1470, symBinAddr: 0x100001C58, symSize: 0x2C }
  - { offset: 0x31FEF, size: 0x8, addend: 0x0, symName: __ZN7digraphIiE3addEiii, symObjAddr: 0x1310, symBinAddr: 0x100001AF8, symSize: 0x160 }
  - { offset: 0x32074, size: 0x8, addend: 0x0, symName: __ZNKSt17_Rb_tree_iteratorISt4pairIKiiEEdeEv, symObjAddr: 0x12F0, symBinAddr: 0x100001AD8, symSize: 0x20 }
  - { offset: 0x3209E, size: 0x8, addend: 0x0, symName: __ZNSt17_Rb_tree_iteratorISt4pairIKiiEEppEv, symObjAddr: 0x12C0, symBinAddr: 0x100001AA8, symSize: 0x30 }
  - { offset: 0x320C4, size: 0x8, addend: 0x0, symName: __ZStneRKSt17_Rb_tree_iteratorISt4pairIKiiEES5_, symObjAddr: 0x1290, symBinAddr: 0x100001A78, symSize: 0x30 }
  - { offset: 0x32103, size: 0x8, addend: 0x0, symName: __ZNSt3mapIiiSt4lessIiESaISt4pairIKiiEEE3endEv, symObjAddr: 0x1274, symBinAddr: 0x100001A5C, symSize: 0x1C }
  - { offset: 0x3212D, size: 0x8, addend: 0x0, symName: __ZNSt3mapIiiSt4lessIiESaISt4pairIKiiEEE5beginEv, symObjAddr: 0x1258, symBinAddr: 0x100001A40, symSize: 0x1C }
  - { offset: 0x3217B, size: 0x8, addend: 0x0, symName: __ZNSt6vectorIS_IiSaIiEESaIS1_EED1Ev, symObjAddr: 0x11FC, symBinAddr: 0x1000019E4, symSize: 0x5C }
  - { offset: 0x321FB, size: 0x8, addend: 0x0, symName: __ZNSt6vectorIN5graphIiE4edgeESaIS2_EED1Ev, symObjAddr: 0x11A0, symBinAddr: 0x100001988, symSize: 0x5C }
  - { offset: 0x3227E, size: 0x8, addend: 0x0, symName: __ZN7digraphIiEC1Ei, symObjAddr: 0x1164, symBinAddr: 0x10000194C, symSize: 0x3C }
  - { offset: 0x322AD, size: 0x8, addend: 0x0, symName: __ZNSt6vectorIiSaIiEEixEm, symObjAddr: 0x113C, symBinAddr: 0x100001924, symSize: 0x28 }
  - { offset: 0x322E8, size: 0x8, addend: 0x0, symName: __ZNKSt6vectorIiSaIiEE4sizeEv, symObjAddr: 0x1114, symBinAddr: 0x1000018FC, symSize: 0x28 }
  - { offset: 0x3230E, size: 0x8, addend: 0x0, symName: __ZSt4sortIN9__gnu_cxx17__normal_iteratorIPiSt6vectorIiSaIiEEEEEvT_S7_, symObjAddr: 0x10DC, symBinAddr: 0x1000018C4, symSize: 0x38 }
  - { offset: 0x32356, size: 0x8, addend: 0x0, symName: __ZNSt6vectorIiSaIiEE3endEv, symObjAddr: 0x10B4, symBinAddr: 0x10000189C, symSize: 0x28 }
  - { offset: 0x32380, size: 0x8, addend: 0x0, symName: __ZNSt6vectorIiSaIiEE5beginEv, symObjAddr: 0x1090, symBinAddr: 0x100001878, symSize: 0x24 }
  - { offset: 0x323AA, size: 0x8, addend: 0x0, symName: __ZNSt3setIiSt4lessIiESaIiEE6insertERKi, symObjAddr: 0x1050, symBinAddr: 0x100001838, symSize: 0x40 }
  - { offset: 0x323F6, size: 0x8, addend: 0x0, symName: __ZNSt3mapIiSt3setIiSt4lessIiESaIiEES2_SaISt4pairIKiS4_EEEixERS6_, symObjAddr: 0xF64, symBinAddr: 0x10000174C, symSize: 0xEC }
  - { offset: 0x32442, size: 0x8, addend: 0x0, symName: __ZNSt6vectorIiSaIiEE9push_backERKi, symObjAddr: 0xE9C, symBinAddr: 0x100001684, symSize: 0xC8 }
  - { offset: 0x324E9, size: 0x8, addend: 0x0, symName: __ZNSt3mapIiiSt4lessIiESaISt4pairIKiiEEEixERS3_, symObjAddr: 0xDB0, symBinAddr: 0x100001598, symSize: 0xEC }
  - { offset: 0x32535, size: 0x8, addend: 0x0, symName: __ZNKSt3mapIiiSt4lessIiESaISt4pairIKiiEEE5countERS3_, symObjAddr: 0xD58, symBinAddr: 0x100001540, symSize: 0x58 }
  - { offset: 0x32594, size: 0x8, addend: 0x0, symName: __ZNSt8_Rb_treeIiSt4pairIKiSt3setIiSt4lessIiESaIiEEESt10_Select1stIS7_ES4_SaIS7_EED1Ev, symObjAddr: 0xD24, symBinAddr: 0x10000150C, symSize: 0x34 }
  - { offset: 0x325F4, size: 0x8, addend: 0x0, symName: __ZNSt8_Rb_treeIiSt4pairIKiSt3setIiSt4lessIiESaIiEEESt10_Select1stIS7_ES4_SaIS7_EE13_Rb_tree_implIS4_Lb1EEC1Ev, symObjAddr: 0xCE0, symBinAddr: 0x1000014C8, symSize: 0x44 }
  - { offset: 0x32685, size: 0x8, addend: 0x0, symName: __ZNSt6vectorIiSaIiEED1Ev, symObjAddr: 0xC84, symBinAddr: 0x10000146C, symSize: 0x5C }
  - { offset: 0x32705, size: 0x8, addend: 0x0, symName: __ZNSt12_Vector_baseIiSaIiEED2Ev, symObjAddr: 0xC34, symBinAddr: 0x10000141C, symSize: 0x50 }
  - { offset: 0x32765, size: 0x8, addend: 0x0, symName: __ZNSt12_Vector_baseIiSaIiEE12_Vector_implC1Ev, symObjAddr: 0xBFC, symBinAddr: 0x1000013E4, symSize: 0x38 }
  - { offset: 0x327F5, size: 0x8, addend: 0x0, symName: __ZNSt8_Rb_treeIiSt4pairIKiiESt10_Select1stIS2_ESt4lessIiESaIS2_EED1Ev, symObjAddr: 0xBC8, symBinAddr: 0x1000013B0, symSize: 0x34 }
  - { offset: 0x32855, size: 0x8, addend: 0x0, symName: __ZNSt8_Rb_treeIiSt4pairIKiiESt10_Select1stIS2_ESt4lessIiESaIS2_EE13_Rb_tree_implIS6_Lb1EEC1Ev, symObjAddr: 0xB84, symBinAddr: 0x10000136C, symSize: 0x44 }
  - { offset: 0x328DC, size: 0x8, addend: 0x0, symName: __ZNSt14_Function_baseC2Ev, symObjAddr: 0xB60, symBinAddr: 0x100001348, symSize: 0x24 }
  - { offset: 0x32905, size: 0x8, addend: 0x0, symName: __ZSt7forwardIiEOT_RNSt16remove_referenceIS0_E4typeE, symObjAddr: 0xB4C, symBinAddr: 0x100001334, symSize: 0x14 }
  - { offset: 0x32937, size: 0x8, addend: 0x0, symName: __ZSt3maxImERKT_S2_S2_, symObjAddr: 0xB14, symBinAddr: 0x1000012FC, symSize: 0x38 }
  - { offset: 0x32982, size: 0x8, addend: 0x0, symName: _main, symObjAddr: 0xAB0, symBinAddr: 0x100001298, symSize: 0x64 }
  - { offset: 0x329B2, size: 0x8, addend: 0x0, symName: __Z5solvev, symObjAddr: 0x42C, symBinAddr: 0x100000C14, symSize: 0x684 }
  - { offset: 0x32CF0, size: 0x8, addend: 0x0, symName: __ZNSt3setIiSt4lessIiESaIiEED1Ev, symObjAddr: 0x40C, symBinAddr: 0x100000BF4, symSize: 0x20 }
  - { offset: 0x32D30, size: 0x8, addend: 0x0, symName: __ZNSt3setIiSt4lessIiESaIiEEC1Ev, symObjAddr: 0x3EC, symBinAddr: 0x100000BD4, symSize: 0x20 }
  - { offset: 0x32D70, size: 0x8, addend: 0x0, symName: __ZNSt8_Rb_treeIiiSt9_IdentityIiESt4lessIiESaIiEEC1Ev, symObjAddr: 0x3CC, symBinAddr: 0x100000BB4, symSize: 0x20 }
  - { offset: 0x32DBE, size: 0x8, addend: 0x0, symName: __ZNSt8_Rb_treeIiiSt9_IdentityIiESt4lessIiESaIiEE13_Rb_tree_implIS3_Lb1EED1Ev, symObjAddr: 0x3A0, symBinAddr: 0x100000B88, symSize: 0x2C }
  - { offset: 0x32E2F, size: 0x8, addend: 0x0, symName: __ZN7digraphIiED1Ev, symObjAddr: 0x36C, symBinAddr: 0x100000B54, symSize: 0x34 }
  - { offset: 0x32E7C, size: 0x8, addend: 0x0, symName: __ZN5graphIiED2Ev, symObjAddr: 0x328, symBinAddr: 0x100000B10, symSize: 0x44 }
  - { offset: 0x32EC6, size: 0x8, addend: 0x0, symName: __ZNSt3mapIiSt3setIiSt4lessIiESaIiEES2_SaISt4pairIKiS4_EEED1Ev, symObjAddr: 0x308, symBinAddr: 0x100000AF0, symSize: 0x20 }
  - { offset: 0x32F06, size: 0x8, addend: 0x0, symName: __ZNSt3mapIiSt3setIiSt4lessIiESaIiEES2_SaISt4pairIKiS4_EEEC1Ev, symObjAddr: 0x2E8, symBinAddr: 0x100000AD0, symSize: 0x20 }
  - { offset: 0x32F46, size: 0x8, addend: 0x0, symName: __ZNSt8_Rb_treeIiSt4pairIKiSt3setIiSt4lessIiESaIiEEESt10_Select1stIS7_ES4_SaIS7_EEC1Ev, symObjAddr: 0x2C8, symBinAddr: 0x100000AB0, symSize: 0x20 }
  - { offset: 0x32F94, size: 0x8, addend: 0x0, symName: __ZNSt8_Rb_treeIiSt4pairIKiSt3setIiSt4lessIiESaIiEEESt10_Select1stIS7_ES4_SaIS7_EE13_Rb_tree_implIS4_Lb1EED1Ev, symObjAddr: 0x29C, symBinAddr: 0x100000A84, symSize: 0x2C }
  - { offset: 0x32FF8, size: 0x8, addend: 0x0, symName: __ZNSt6vectorIiSaIiEEC1Ev, symObjAddr: 0x27C, symBinAddr: 0x100000A64, symSize: 0x20 }
  - { offset: 0x33038, size: 0x8, addend: 0x0, symName: __ZNSt12_Vector_baseIiSaIiEEC2Ev, symObjAddr: 0x25C, symBinAddr: 0x100000A44, symSize: 0x20 }
  - { offset: 0x33085, size: 0x8, addend: 0x0, symName: __ZNSt12_Vector_baseIiSaIiEE12_Vector_implD1Ev, symObjAddr: 0x230, symBinAddr: 0x100000A18, symSize: 0x2C }
  - { offset: 0x330F2, size: 0x8, addend: 0x0, symName: __ZNSt3mapIiiSt4lessIiESaISt4pairIKiiEEED1Ev, symObjAddr: 0x210, symBinAddr: 0x1000009F8, symSize: 0x20 }
  - { offset: 0x33132, size: 0x8, addend: 0x0, symName: __ZNSt3mapIiiSt4lessIiESaISt4pairIKiiEEEC1Ev, symObjAddr: 0x1F0, symBinAddr: 0x1000009D8, symSize: 0x20 }
  - { offset: 0x33172, size: 0x8, addend: 0x0, symName: __ZNSt8_Rb_treeIiSt4pairIKiiESt10_Select1stIS2_ESt4lessIiESaIS2_EEC1Ev, symObjAddr: 0x1D0, symBinAddr: 0x1000009B8, symSize: 0x20 }
  - { offset: 0x331C0, size: 0x8, addend: 0x0, symName: __ZNSt8_Rb_treeIiSt4pairIKiiESt10_Select1stIS2_ESt4lessIiESaIS2_EE13_Rb_tree_implIS6_Lb1EED1Ev, symObjAddr: 0x1A4, symBinAddr: 0x10000098C, symSize: 0x2C }
  - { offset: 0x3320A, size: 0x8, addend: 0x0, symName: __ZNSt15_Rb_tree_header8_M_resetEv, symObjAddr: 0x168, symBinAddr: 0x100000950, symSize: 0x3C }
  - { offset: 0x3324E, size: 0x8, addend: 0x0, symName: __ZNSt15_Rb_tree_headerC2Ev, symObjAddr: 0x140, symBinAddr: 0x100000928, symSize: 0x28 }
  - { offset: 0x33270, size: 0x8, addend: 0x0, symName: __ZSt3minImERKT_S2_S2_, symObjAddr: 0x108, symBinAddr: 0x1000008F0, symSize: 0x38 }
  - { offset: 0x332B6, size: 0x8, addend: 0x0, symName: __ZNKSt14_Function_base8_M_emptyEv, symObjAddr: 0xE4, symBinAddr: 0x1000008CC, symSize: 0x24 }
  - { offset: 0x33304, size: 0x8, addend: 0x0, symName: __ZNSt14_Function_baseD2Ev, symObjAddr: 0xA4, symBinAddr: 0x10000088C, symSize: 0x40 }
  - { offset: 0x3332E, size: 0x8, addend: 0x0, symName: __ZNKSt9_Any_data9_M_accessEv, symObjAddr: 0x90, symBinAddr: 0x100000878, symSize: 0x14 }
  - { offset: 0x3335C, size: 0x8, addend: 0x0, symName: __ZNSt9_Any_data9_M_accessEv, symObjAddr: 0x7C, symBinAddr: 0x100000864, symSize: 0x14 }
  - { offset: 0x33389, size: 0x8, addend: 0x0, symName: __ZdlPvS_, symObjAddr: 0x64, symBinAddr: 0x10000084C, symSize: 0x18 }
  - { offset: 0x333BF, size: 0x8, addend: 0x0, symName: __ZnwmPv, symObjAddr: 0x4C, symBinAddr: 0x100000834, symSize: 0x18 }
  - { offset: 0x333F1, size: 0x8, addend: 0x0, symName: __ZSt17__size_to_integerm, symObjAddr: 0x38, symBinAddr: 0x100000820, symSize: 0x14 }
  - { offset: 0x3341B, size: 0x8, addend: 0x0, symName: __ZN9__gnu_cxx5__ops15__val_comp_iterENS0_15_Iter_less_iterE, symObjAddr: 0x20, symBinAddr: 0x100000808, symSize: 0x18 }
  - { offset: 0x33460, size: 0x8, addend: 0x0, symName: __ZN9__gnu_cxx5__ops14_Iter_less_valC1ENS0_15_Iter_less_iterE, symObjAddr: 0x8, symBinAddr: 0x1000007F0, symSize: 0x18 }
  - { offset: 0x3348B, size: 0x8, addend: 0x0, symName: __ZN9__gnu_cxx5__ops16__iter_less_iterEv, symObjAddr: 0x0, symBinAddr: 0x1000007E8, symSize: 0x8 }
...
